	.file	"city.cpp"
	.text
	.globl	_ZSt19piecewise_construct
	.section	.rdata$_ZSt19piecewise_construct,"dr"
	.linkonce same_size
_ZSt19piecewise_construct:
	.space 1
	.section	.text$_ZSt4__lgx,"x"
	.linkonce discard
	.globl	_ZSt4__lgx
	.def	_ZSt4__lgx;	.scl	2;	.type	32;	.endef
	.seh_proc	_ZSt4__lgx
_ZSt4__lgx:
.LFB752:
	pushq	%rbp
	.seh_pushreg	%rbp
	movq	%rsp, %rbp
	.seh_setframe	%rbp, 0
	.seh_endprologue
	movq	%rcx, 16(%rbp)
	movq	16(%rbp), %rax
	bsrq	%rax, %rax
	xorq	$63, %rax
	movl	%eax, %edx
	movl	$63, %eax
	subl	%edx, %eax
	cltq
	popq	%rbp
	ret
	.seh_endproc
	.section	.text$_ZnwyPv,"x"
	.linkonce discard
	.globl	_ZnwyPv
	.def	_ZnwyPv;	.scl	2;	.type	32;	.endef
	.seh_proc	_ZnwyPv
_ZnwyPv:
.LFB1221:
	pushq	%rbp
	.seh_pushreg	%rbp
	movq	%rsp, %rbp
	.seh_setframe	%rbp, 0
	.seh_endprologue
	movq	%rcx, 16(%rbp)
	movq	%rdx, 24(%rbp)
	movq	24(%rbp), %rax
	popq	%rbp
	ret
	.seh_endproc
	.section	.text$_ZdlPvS_,"x"
	.linkonce discard
	.globl	_ZdlPvS_
	.def	_ZdlPvS_;	.scl	2;	.type	32;	.endef
	.seh_proc	_ZdlPvS_
_ZdlPvS_:
.LFB1223:
	pushq	%rbp
	.seh_pushreg	%rbp
	movq	%rsp, %rbp
	.seh_setframe	%rbp, 0
	.seh_endprologue
	movq	%rcx, 16(%rbp)
	movq	%rdx, 24(%rbp)
	nop
	popq	%rbp
	ret
	.seh_endproc
	.section .rdata,"dr"
_ZN6__pstl9execution2v1L3seqE:
	.space 1
_ZN6__pstl9execution2v1L3parE:
	.space 1
_ZN6__pstl9execution2v1L9par_unseqE:
	.space 1
_ZN6__pstl9execution2v1L5unseqE:
	.space 1
	.section	.text$_ZSt3minIyERKT_S2_S2_,"x"
	.linkonce discard
	.globl	_ZSt3minIyERKT_S2_S2_
	.def	_ZSt3minIyERKT_S2_S2_;	.scl	2;	.type	32;	.endef
	.seh_proc	_ZSt3minIyERKT_S2_S2_
_ZSt3minIyERKT_S2_S2_:
.LFB3925:
	pushq	%rbp
	.seh_pushreg	%rbp
	movq	%rsp, %rbp
	.seh_setframe	%rbp, 0
	.seh_endprologue
	movq	%rcx, 16(%rbp)
	movq	%rdx, 24(%rbp)
	movq	24(%rbp), %rax
	movq	(%rax), %rdx
	movq	16(%rbp), %rax
	movq	(%rax), %rax
	cmpq	%rax, %rdx
	jnb	.L7
	movq	24(%rbp), %rax
	jmp	.L8
.L7:
	movq	16(%rbp), %rax
.L8:
	popq	%rbp
	ret
	.seh_endproc
.lcomm _ZStL8__ioinit,1,1
	.section	.text$_ZNSt15_Rb_tree_headerC2Ev,"x"
	.linkonce discard
	.align 2
	.globl	_ZNSt15_Rb_tree_headerC2Ev
	.def	_ZNSt15_Rb_tree_headerC2Ev;	.scl	2;	.type	32;	.endef
	.seh_proc	_ZNSt15_Rb_tree_headerC2Ev
_ZNSt15_Rb_tree_headerC2Ev:
.LFB5132:
	pushq	%rbp
	.seh_pushreg	%rbp
	movq	%rsp, %rbp
	.seh_setframe	%rbp, 0
	subq	$32, %rsp
	.seh_stackalloc	32
	.seh_endprologue
	movq	%rcx, 16(%rbp)
	movq	16(%rbp), %rax
	movl	$0, (%rax)
	movq	16(%rbp), %rax
	movq	%rax, %rcx
	call	_ZNSt15_Rb_tree_header8_M_resetEv
	nop
	addq	$32, %rsp
	popq	%rbp
	ret
	.seh_endproc
	.section	.text$_ZNSt15_Rb_tree_header8_M_resetEv,"x"
	.linkonce discard
	.align 2
	.globl	_ZNSt15_Rb_tree_header8_M_resetEv
	.def	_ZNSt15_Rb_tree_header8_M_resetEv;	.scl	2;	.type	32;	.endef
	.seh_proc	_ZNSt15_Rb_tree_header8_M_resetEv
_ZNSt15_Rb_tree_header8_M_resetEv:
.LFB5138:
	pushq	%rbp
	.seh_pushreg	%rbp
	movq	%rsp, %rbp
	.seh_setframe	%rbp, 0
	.seh_endprologue
	movq	%rcx, 16(%rbp)
	movq	16(%rbp), %rax
	movq	$0, 8(%rax)
	movq	16(%rbp), %rdx
	movq	16(%rbp), %rax
	movq	%rdx, 16(%rax)
	movq	16(%rbp), %rdx
	movq	16(%rbp), %rax
	movq	%rdx, 24(%rax)
	movq	16(%rbp), %rax
	movq	$0, 32(%rax)
	nop
	popq	%rbp
	ret
	.seh_endproc
	.section .rdata,"dr"
	.align 4
_ZN9__gnu_cxxL21__default_lock_policyE:
	.long	2
	.align 4
_ZNSt15regex_constantsL13error_collateE:
	.space 4
	.align 4
_ZNSt15regex_constantsL11error_ctypeE:
	.long	1
	.align 4
_ZNSt15regex_constantsL12error_escapeE:
	.long	2
	.align 4
_ZNSt15regex_constantsL13error_backrefE:
	.long	3
	.align 4
_ZNSt15regex_constantsL11error_brackE:
	.long	4
	.align 4
_ZNSt15regex_constantsL11error_parenE:
	.long	5
	.align 4
_ZNSt15regex_constantsL11error_braceE:
	.long	6
	.align 4
_ZNSt15regex_constantsL14error_badbraceE:
	.long	7
	.align 4
_ZNSt15regex_constantsL11error_rangeE:
	.long	8
	.align 4
_ZNSt15regex_constantsL11error_spaceE:
	.long	9
	.align 4
_ZNSt15regex_constantsL15error_badrepeatE:
	.long	10
	.align 4
_ZNSt15regex_constantsL16error_complexityE:
	.long	11
	.align 4
_ZNSt15regex_constantsL11error_stackE:
	.long	12
	.align 4
_ZNSt8__detailL19_S_invalid_state_idE:
	.long	-1
	.text
	.globl	_Z4readv
	.def	_Z4readv;	.scl	2;	.type	32;	.endef
	.seh_proc	_Z4readv
_Z4readv:
.LFB10033:
	pushq	%rbp
	.seh_pushreg	%rbp
	movq	%rsp, %rbp
	.seh_setframe	%rbp, 0
	subq	$48, %rsp
	.seh_stackalloc	48
	.seh_endprologue
	movl	$0, -4(%rbp)
	movl	$1, -8(%rbp)
	call	getchar
	movb	%al, -9(%rbp)
	jmp	.L12
.L14:
	cmpb	$45, -9(%rbp)
	jne	.L13
	movl	$-1, -8(%rbp)
.L13:
	call	getchar
	movb	%al, -9(%rbp)
.L12:
	movsbl	-9(%rbp), %eax
	subl	$48, %eax
	cmpl	$9, %eax
	ja	.L14
	jmp	.L15
.L16:
	movl	-4(%rbp), %eax
	leal	0(,%rax,8), %edx
	movl	-4(%rbp), %eax
	addl	%eax, %eax
	addl	%eax, %edx
	movzbl	-9(%rbp), %eax
	xorl	$48, %eax
	movsbl	%al, %eax
	addl	%edx, %eax
	movl	%eax, -4(%rbp)
	call	getchar
	movb	%al, -9(%rbp)
.L15:
	movsbl	-9(%rbp), %eax
	subl	$48, %eax
	cmpl	$9, %eax
	setbe	%al
	movzbl	%al, %eax
	testl	%eax, %eax
	jne	.L16
	movl	-4(%rbp), %eax
	imull	-8(%rbp), %eax
	addq	$48, %rsp
	popq	%rbp
	ret
	.seh_endproc
	.section .rdata,"dr"
	.align 4
_ZL4MAXN:
	.long	500005
	.globl	n
	.bss
	.align 4
n:
	.space 4
	.globl	m
	.align 4
m:
	.space 4
	.globl	X
	.align 4
X:
	.space 4
	.globl	q
	.align 4
q:
	.space 4
	.globl	now
	.align 4
now:
	.space 4
	.globl	fa
	.align 32
fa:
	.space 2000020
	.globl	cnt
	.align 4
cnt:
	.space 4
	.globl	tot
	.align 4
tot:
	.space 4
	.globl	ans
	.align 32
ans:
	.space 4000040
	.section	.text$_ZNSt12_Vector_baseIiSaIiEE12_Vector_implD1Ev,"x"
	.linkonce discard
	.align 2
	.globl	_ZNSt12_Vector_baseIiSaIiEE12_Vector_implD1Ev
	.def	_ZNSt12_Vector_baseIiSaIiEE12_Vector_implD1Ev;	.scl	2;	.type	32;	.endef
	.seh_proc	_ZNSt12_Vector_baseIiSaIiEE12_Vector_implD1Ev
_ZNSt12_Vector_baseIiSaIiEE12_Vector_implD1Ev:
.LFB10039:
	pushq	%rbp
	.seh_pushreg	%rbp
	movq	%rsp, %rbp
	.seh_setframe	%rbp, 0
	subq	$32, %rsp
	.seh_stackalloc	32
	.seh_endprologue
	movq	%rcx, 16(%rbp)
	movq	16(%rbp), %rax
	movq	%rax, %rcx
	call	_ZNSaIiED2Ev
	nop
	addq	$32, %rsp
	popq	%rbp
	ret
	.seh_endproc
	.section	.text$_ZNSt12_Vector_baseIiSaIiEEC2Ev,"x"
	.linkonce discard
	.align 2
	.globl	_ZNSt12_Vector_baseIiSaIiEEC2Ev
	.def	_ZNSt12_Vector_baseIiSaIiEEC2Ev;	.scl	2;	.type	32;	.endef
	.seh_proc	_ZNSt12_Vector_baseIiSaIiEEC2Ev
_ZNSt12_Vector_baseIiSaIiEEC2Ev:
.LFB10040:
	pushq	%rbp
	.seh_pushreg	%rbp
	movq	%rsp, %rbp
	.seh_setframe	%rbp, 0
	subq	$32, %rsp
	.seh_stackalloc	32
	.seh_endprologue
	movq	%rcx, 16(%rbp)
	movq	16(%rbp), %rax
	movq	%rax, %rcx
	call	_ZNSt12_Vector_baseIiSaIiEE12_Vector_implC1Ev
	nop
	addq	$32, %rsp
	popq	%rbp
	ret
	.seh_endproc
	.section	.text$_ZNSt6vectorIiSaIiEEC1Ev,"x"
	.linkonce discard
	.align 2
	.globl	_ZNSt6vectorIiSaIiEEC1Ev
	.def	_ZNSt6vectorIiSaIiEEC1Ev;	.scl	2;	.type	32;	.endef
	.seh_proc	_ZNSt6vectorIiSaIiEEC1Ev
_ZNSt6vectorIiSaIiEEC1Ev:
.LFB10043:
	pushq	%rbp
	.seh_pushreg	%rbp
	movq	%rsp, %rbp
	.seh_setframe	%rbp, 0
	subq	$32, %rsp
	.seh_stackalloc	32
	.seh_endprologue
	movq	%rcx, 16(%rbp)
	movq	16(%rbp), %rax
	movq	%rax, %rcx
	call	_ZNSt12_Vector_baseIiSaIiEEC2Ev
	nop
	addq	$32, %rsp
	popq	%rbp
	ret
	.seh_endproc
	.globl	p
	.bss
	.align 32
p:
	.space 12000120
	.globl	_g
	.align 32
_g:
	.space 12000120
	.text
	.globl	_Z4findi
	.def	_Z4findi;	.scl	2;	.type	32;	.endef
	.seh_proc	_Z4findi
_Z4findi:
.LFB10044:
	pushq	%rbp
	.seh_pushreg	%rbp
	movq	%rsp, %rbp
	.seh_setframe	%rbp, 0
	subq	$32, %rsp
	.seh_stackalloc	32
	.seh_endprologue
	movl	%ecx, 16(%rbp)
	movl	16(%rbp), %eax
	cltq
	leaq	0(,%rax,4), %rdx
	leaq	fa(%rip), %rax
	movl	(%rdx,%rax), %eax
	cmpl	%eax, 16(%rbp)
	jne	.L22
	movl	16(%rbp), %eax
	cltq
	leaq	0(,%rax,4), %rdx
	leaq	fa(%rip), %rax
	movl	(%rdx,%rax), %eax
	jmp	.L23
.L22:
	movl	16(%rbp), %eax
	cltq
	leaq	0(,%rax,4), %rdx
	leaq	fa(%rip), %rax
	movl	(%rdx,%rax), %eax
	movl	%eax, %ecx
	call	_Z4findi
	movl	16(%rbp), %edx
	movslq	%edx, %rdx
	leaq	0(,%rdx,4), %rcx
	leaq	fa(%rip), %rdx
	movl	%eax, (%rcx,%rdx)
	movl	16(%rbp), %eax
	cltq
	leaq	0(,%rax,4), %rdx
	leaq	fa(%rip), %rax
	movl	(%rdx,%rax), %eax
.L23:
	addq	$32, %rsp
	popq	%rbp
	ret
	.seh_endproc
	.globl	_Z5mergeii
	.def	_Z5mergeii;	.scl	2;	.type	32;	.endef
	.seh_proc	_Z5mergeii
_Z5mergeii:
.LFB10045:
	pushq	%rbp
	.seh_pushreg	%rbp
	movq	%rsp, %rbp
	.seh_setframe	%rbp, 0
	subq	$48, %rsp
	.seh_stackalloc	48
	.seh_endprologue
	movl	%ecx, 16(%rbp)
	movl	%edx, 24(%rbp)
	movl	16(%rbp), %eax
	movl	%eax, %ecx
	call	_Z4findi
	movl	%eax, -4(%rbp)
	movl	24(%rbp), %eax
	movl	%eax, %ecx
	call	_Z4findi
	movl	%eax, -8(%rbp)
	movl	-4(%rbp), %eax
	cmpl	-8(%rbp), %eax
	je	.L26
	movl	-8(%rbp), %eax
	cltq
	leaq	0(,%rax,4), %rdx
	leaq	fa(%rip), %rax
	movl	-4(%rbp), %ecx
	movl	%ecx, (%rdx,%rax)
.L26:
	nop
	addq	$48, %rsp
	popq	%rbp
	ret
	.seh_endproc
	.section	.text$_ZNSt8_Rb_treeIiSt4pairIKiSt3mapIiiSt4lessIiESaIS0_IS1_iEEEESt10_Select1stIS8_ES4_SaIS8_EE13_Rb_tree_implIS4_Lb1EED1Ev,"x"
	.linkonce discard
	.align 2
	.globl	_ZNSt8_Rb_treeIiSt4pairIKiSt3mapIiiSt4lessIiESaIS0_IS1_iEEEESt10_Select1stIS8_ES4_SaIS8_EE13_Rb_tree_implIS4_Lb1EED1Ev
	.def	_ZNSt8_Rb_treeIiSt4pairIKiSt3mapIiiSt4lessIiESaIS0_IS1_iEEEESt10_Select1stIS8_ES4_SaIS8_EE13_Rb_tree_implIS4_Lb1EED1Ev;	.scl	2;	.type	32;	.endef
	.seh_proc	_ZNSt8_Rb_treeIiSt4pairIKiSt3mapIiiSt4lessIiESaIS0_IS1_iEEEESt10_Select1stIS8_ES4_SaIS8_EE13_Rb_tree_implIS4_Lb1EED1Ev
_ZNSt8_Rb_treeIiSt4pairIKiSt3mapIiiSt4lessIiESaIS0_IS1_iEEEESt10_Select1stIS8_ES4_SaIS8_EE13_Rb_tree_implIS4_Lb1EED1Ev:
.LFB10053:
	pushq	%rbp
	.seh_pushreg	%rbp
	movq	%rsp, %rbp
	.seh_setframe	%rbp, 0
	subq	$32, %rsp
	.seh_stackalloc	32
	.seh_endprologue
	movq	%rcx, 16(%rbp)
	movq	16(%rbp), %rax
	movq	%rax, %rcx
	call	_ZNSaISt13_Rb_tree_nodeISt4pairIKiSt3mapIiiSt4lessIiESaIS0_IS1_iEEEEEED2Ev
	nop
	addq	$32, %rsp
	popq	%rbp
	ret
	.seh_endproc
	.section	.text$_ZNSt8_Rb_treeIiSt4pairIKiSt3mapIiiSt4lessIiESaIS0_IS1_iEEEESt10_Select1stIS8_ES4_SaIS8_EEC1Ev,"x"
	.linkonce discard
	.align 2
	.globl	_ZNSt8_Rb_treeIiSt4pairIKiSt3mapIiiSt4lessIiESaIS0_IS1_iEEEESt10_Select1stIS8_ES4_SaIS8_EEC1Ev
	.def	_ZNSt8_Rb_treeIiSt4pairIKiSt3mapIiiSt4lessIiESaIS0_IS1_iEEEESt10_Select1stIS8_ES4_SaIS8_EEC1Ev;	.scl	2;	.type	32;	.endef
	.seh_proc	_ZNSt8_Rb_treeIiSt4pairIKiSt3mapIiiSt4lessIiESaIS0_IS1_iEEEESt10_Select1stIS8_ES4_SaIS8_EEC1Ev
_ZNSt8_Rb_treeIiSt4pairIKiSt3mapIiiSt4lessIiESaIS0_IS1_iEEEESt10_Select1stIS8_ES4_SaIS8_EEC1Ev:
.LFB10055:
	pushq	%rbp
	.seh_pushreg	%rbp
	movq	%rsp, %rbp
	.seh_setframe	%rbp, 0
	subq	$32, %rsp
	.seh_stackalloc	32
	.seh_endprologue
	movq	%rcx, 16(%rbp)
	movq	16(%rbp), %rax
	movq	%rax, %rcx
	call	_ZNSt8_Rb_treeIiSt4pairIKiSt3mapIiiSt4lessIiESaIS0_IS1_iEEEESt10_Select1stIS8_ES4_SaIS8_EE13_Rb_tree_implIS4_Lb1EEC1Ev
	nop
	addq	$32, %rsp
	popq	%rbp
	ret
	.seh_endproc
	.section	.text$_ZNSt3mapIiS_IiiSt4lessIiESaISt4pairIKiiEEES1_SaIS2_IS3_S6_EEEC1Ev,"x"
	.linkonce discard
	.align 2
	.globl	_ZNSt3mapIiS_IiiSt4lessIiESaISt4pairIKiiEEES1_SaIS2_IS3_S6_EEEC1Ev
	.def	_ZNSt3mapIiS_IiiSt4lessIiESaISt4pairIKiiEEES1_SaIS2_IS3_S6_EEEC1Ev;	.scl	2;	.type	32;	.endef
	.seh_proc	_ZNSt3mapIiS_IiiSt4lessIiESaISt4pairIKiiEEES1_SaIS2_IS3_S6_EEEC1Ev
_ZNSt3mapIiS_IiiSt4lessIiESaISt4pairIKiiEEES1_SaIS2_IS3_S6_EEEC1Ev:
.LFB10057:
	pushq	%rbp
	.seh_pushreg	%rbp
	movq	%rsp, %rbp
	.seh_setframe	%rbp, 0
	subq	$32, %rsp
	.seh_stackalloc	32
	.seh_endprologue
	movq	%rcx, 16(%rbp)
	movq	16(%rbp), %rax
	movq	%rax, %rcx
	call	_ZNSt8_Rb_treeIiSt4pairIKiSt3mapIiiSt4lessIiESaIS0_IS1_iEEEESt10_Select1stIS8_ES4_SaIS8_EEC1Ev
	nop
	addq	$32, %rsp
	popq	%rbp
	ret
	.seh_endproc
	.globl	vis
	.bss
	.align 32
vis:
	.space 48
	.text
	.globl	_Z5Printv
	.def	_Z5Printv;	.scl	2;	.type	32;	.endef
	.seh_proc	_Z5Printv
_Z5Printv:
.LFB10058:
	pushq	%rbp
	.seh_pushreg	%rbp
	movq	%rsp, %rbp
	.seh_setframe	%rbp, 0
	subq	$48, %rsp
	.seh_stackalloc	48
	.seh_endprologue
	movl	$1, -4(%rbp)
	movl	now(%rip), %eax
	movl	%eax, -8(%rbp)
	jmp	.L31
.L32:
	movl	-4(%rbp), %eax
	cltq
	leaq	0(,%rax,8), %rdx
	leaq	ans(%rip), %rax
	movl	(%rdx,%rax), %eax
	movl	%eax, %ecx
	call	_Z5printIiEvT_
	movl	$32, %ecx
	call	putchar
	movl	-4(%rbp), %eax
	cltq
	leaq	0(,%rax,8), %rdx
	leaq	4+ans(%rip), %rax
	movl	(%rdx,%rax), %eax
	movl	%eax, %ecx
	call	_Z5printIiEvT_
	movl	$10, %ecx
	call	putchar
	addl	$1, -4(%rbp)
.L31:
	movl	-4(%rbp), %eax
	cmpl	-8(%rbp), %eax
	jle	.L32
	nop
	nop
	addq	$48, %rsp
	popq	%rbp
	ret
	.seh_endproc
	.globl	g
	.bss
	.align 32
g:
	.space 4000040
	.text
	.align 2
	.def	_ZZ4mainENKUl4nodeS_E_clES_S_;	.scl	3;	.type	32;	.endef
	.seh_proc	_ZZ4mainENKUl4nodeS_E_clES_S_
_ZZ4mainENKUl4nodeS_E_clES_S_:
.LFB10060:
	pushq	%rbp
	.seh_pushreg	%rbp
	movq	%rsp, %rbp
	.seh_setframe	%rbp, 0
	.seh_endprologue
	movq	%rcx, 16(%rbp)
	movq	%rdx, 24(%rbp)
	movq	%r8, 32(%rbp)
	movl	28(%rbp), %edx
	movl	36(%rbp), %eax
	cmpl	%eax, %edx
	setg	%al
	popq	%rbp
	ret
	.seh_endproc
	.def	__main;	.scl	2;	.type	32;	.endef
	.section .rdata,"dr"
.LC0:
	.ascii "r\0"
.LC1:
	.ascii "city.in\0"
.LC2:
	.ascii "w\0"
.LC3:
	.ascii "city.out\0"
.LC4:
	.ascii "-1\0"
	.text
	.globl	main
	.def	main;	.scl	2;	.type	32;	.endef
	.seh_proc	main
main:
.LFB10059:
	pushq	%rbp
	.seh_pushreg	%rbp
	pushq	%rsi
	.seh_pushreg	%rsi
	pushq	%rbx
	.seh_pushreg	%rbx
	subq	$304, %rsp
	.seh_stackalloc	304
	leaq	128(%rsp), %rbp
	.seh_setframe	%rbp, 128
	.seh_endprologue
	call	__main
	movl	$0, %ecx
	movq	__imp___acrt_iob_func(%rip), %rax
	call	*%rax
	movq	%rax, %r8
	leaq	.LC0(%rip), %rax
	movq	%rax, %rdx
	leaq	.LC1(%rip), %rax
	movq	%rax, %rcx
	call	freopen
	movl	$1, %ecx
	movq	__imp___acrt_iob_func(%rip), %rax
	call	*%rax
	movq	%rax, %r8
	leaq	.LC2(%rip), %rax
	movq	%rax, %rdx
	leaq	.LC3(%rip), %rax
	movq	%rax, %rcx
	call	freopen
	call	_Z4readv
	movl	%eax, n(%rip)
	call	_Z4readv
	movl	%eax, m(%rip)
	call	_Z4readv
	movl	%eax, X(%rip)
	call	_Z4readv
	movl	%eax, q(%rip)
	movl	$1, 172(%rbp)
	movl	n(%rip), %eax
	movl	%eax, 136(%rbp)
	jmp	.L36
.L37:
	movl	172(%rbp), %eax
	cltq
	leaq	0(,%rax,4), %rdx
	leaq	fa(%rip), %rax
	movl	172(%rbp), %ecx
	movl	%ecx, (%rdx,%rax)
	addl	$1, 172(%rbp)
.L36:
	movl	172(%rbp), %eax
	cmpl	136(%rbp), %eax
	jle	.L37
	jmp	.L38
.L39:
	call	_Z4readv
	movl	%eax, %ebx
	call	_Z4readv
	movl	%ebx, %edx
	movl	%eax, %ecx
	call	_Z5mergeii
.L38:
	movl	q(%rip), %eax
	leal	-1(%rax), %edx
	movl	%edx, q(%rip)
	testl	%eax, %eax
	setg	%al
	testb	%al, %al
	jne	.L39
	movl	$1, 44(%rbp)
	movl	n(%rip), %eax
	movl	%eax, 132(%rbp)
	jmp	.L40
.L41:
	movl	44(%rbp), %eax
	movl	%eax, %ecx
	call	_Z4findi
	movslq	%eax, %rdx
	movq	%rdx, %rax
	addq	%rax, %rax
	addq	%rdx, %rax
	salq	$3, %rax
	leaq	p(%rip), %rdx
	leaq	(%rax,%rdx), %rcx
	leaq	44(%rbp), %rax
	movq	%rax, %rdx
	call	_ZNSt6vectorIiSaIiEE12emplace_backIJRiEEES3_DpOT_
	movl	44(%rbp), %eax
	addl	$1, %eax
	movl	%eax, 44(%rbp)
.L40:
	movl	44(%rbp), %eax
	cmpl	%eax, 132(%rbp)
	jge	.L41
	movl	$1, 168(%rbp)
	movl	n(%rip), %eax
	movl	%eax, 128(%rbp)
	jmp	.L42
.L44:
	movl	168(%rbp), %eax
	movslq	%eax, %rdx
	movq	%rdx, %rax
	addq	%rax, %rax
	addq	%rdx, %rax
	salq	$3, %rax
	leaq	p(%rip), %rdx
	addq	%rdx, %rax
	movq	%rax, %rcx
	call	_ZNKSt6vectorIiSaIiEE4sizeEv
	testq	%rax, %rax
	setne	%al
	testb	%al, %al
	je	.L43
	movl	168(%rbp), %eax
	movslq	%eax, %rdx
	movq	%rdx, %rax
	addq	%rax, %rax
	addq	%rdx, %rax
	salq	$3, %rax
	leaq	p(%rip), %rdx
	addq	%rdx, %rax
	movq	%rax, %rcx
	call	_ZNKSt6vectorIiSaIiEE4sizeEv
	movl	%eax, %ecx
	movl	cnt(%rip), %eax
	addl	$1, %eax
	movl	%eax, cnt(%rip)
	movl	cnt(%rip), %eax
	cltq
	leaq	0(,%rax,8), %rdx
	leaq	4+g(%rip), %rax
	movl	%ecx, (%rdx,%rax)
	movl	cnt(%rip), %eax
	cltq
	leaq	0(,%rax,8), %rdx
	leaq	g(%rip), %rax
	movl	168(%rbp), %ecx
	movl	%ecx, (%rdx,%rax)
.L43:
	addl	$1, 168(%rbp)
.L42:
	movl	168(%rbp), %eax
	cmpl	128(%rbp), %eax
	jle	.L44
	movl	cnt(%rip), %eax
	cltq
	addq	$1, %rax
	leaq	0(,%rax,8), %rdx
	leaq	g(%rip), %rax
	addq	%rax, %rdx
	leaq	8+g(%rip), %rax
	movl	%esi, %r8d
	movq	%rax, %rcx
	call	_ZSt4sortIP4nodeZ4mainEUlS0_S0_E_EvT_S3_T0_
	movl	cnt(%rip), %edx
	movl	X(%rip), %eax
	cmpl	%eax, %edx
	jge	.L45
	leaq	.LC4(%rip), %rax
	movq	%rax, %rcx
	call	puts
	movl	$0, %eax
	jmp	.L46
.L45:
	movl	$1, tot(%rip)
	movl	$1, 164(%rbp)
	movl	cnt(%rip), %edx
	movl	X(%rip), %eax
	subl	%eax, %edx
	leal	1(%rdx), %eax
	movl	%eax, 124(%rbp)
	jmp	.L47
.L50:
	movl	164(%rbp), %eax
	cltq
	leaq	0(,%rax,8), %rdx
	leaq	g(%rip), %rax
	movl	(%rdx,%rax), %eax
	movslq	%eax, %rdx
	movq	%rdx, %rax
	addq	%rax, %rax
	addq	%rdx, %rax
	salq	$3, %rax
	leaq	p(%rip), %rdx
	addq	%rdx, %rax
	movq	%rax, 48(%rbp)
	movq	48(%rbp), %rax
	movq	%rax, %rcx
	call	_ZNSt6vectorIiSaIiEE5beginEv
	movq	%rax, 32(%rbp)
	movq	48(%rbp), %rax
	movq	%rax, %rcx
	call	_ZNSt6vectorIiSaIiEE3endEv
	movq	%rax, 24(%rbp)
	jmp	.L48
.L49:
	leaq	32(%rbp), %rax
	movq	%rax, %rcx
	call	_ZNK9__gnu_cxx17__normal_iteratorIPiSt6vectorIiSaIiEEEdeEv
	movl	(%rax), %eax
	movl	%eax, 40(%rbp)
	leaq	40(%rbp), %rax
	movq	%rax, %rdx
	leaq	24+_g(%rip), %rax
	movq	%rax, %rcx
	call	_ZNSt6vectorIiSaIiEE12emplace_backIJRiEEES3_DpOT_
	leaq	32(%rbp), %rax
	movq	%rax, %rcx
	call	_ZN9__gnu_cxx17__normal_iteratorIPiSt6vectorIiSaIiEEEppEv
.L48:
	leaq	24(%rbp), %rdx
	leaq	32(%rbp), %rax
	movq	%rax, %rcx
	call	_ZN9__gnu_cxxneIPiSt6vectorIiSaIiEEEEbRKNS_17__normal_iteratorIT_T0_EESA_
	testb	%al, %al
	jne	.L49
	addl	$1, 164(%rbp)
.L47:
	movl	164(%rbp), %eax
	cmpl	124(%rbp), %eax
	jle	.L50
	movl	cnt(%rip), %edx
	movl	X(%rip), %eax
	subl	%eax, %edx
	leal	2(%rdx), %eax
	movl	%eax, 160(%rbp)
	movl	cnt(%rip), %eax
	movl	%eax, 120(%rbp)
	jmp	.L51
.L54:
	movl	tot(%rip), %eax
	addl	$1, %eax
	movl	%eax, tot(%rip)
	movl	160(%rbp), %eax
	cltq
	leaq	0(,%rax,8), %rdx
	leaq	g(%rip), %rax
	movl	(%rdx,%rax), %eax
	movslq	%eax, %rdx
	movq	%rdx, %rax
	addq	%rax, %rax
	addq	%rdx, %rax
	salq	$3, %rax
	leaq	p(%rip), %rdx
	addq	%rdx, %rax
	movq	%rax, 56(%rbp)
	movq	56(%rbp), %rax
	movq	%rax, %rcx
	call	_ZNSt6vectorIiSaIiEE5beginEv
	movq	%rax, 8(%rbp)
	movq	56(%rbp), %rax
	movq	%rax, %rcx
	call	_ZNSt6vectorIiSaIiEE3endEv
	movq	%rax, 0(%rbp)
	jmp	.L52
.L53:
	leaq	8(%rbp), %rax
	movq	%rax, %rcx
	call	_ZNK9__gnu_cxx17__normal_iteratorIPiSt6vectorIiSaIiEEEdeEv
	movl	(%rax), %eax
	movl	%eax, 20(%rbp)
	movl	tot(%rip), %eax
	movslq	%eax, %rdx
	movq	%rdx, %rax
	addq	%rax, %rax
	addq	%rdx, %rax
	salq	$3, %rax
	leaq	_g(%rip), %rdx
	leaq	(%rax,%rdx), %rcx
	leaq	20(%rbp), %rax
	movq	%rax, %rdx
	call	_ZNSt6vectorIiSaIiEE12emplace_backIJRiEEES3_DpOT_
	leaq	8(%rbp), %rax
	movq	%rax, %rcx
	call	_ZN9__gnu_cxx17__normal_iteratorIPiSt6vectorIiSaIiEEEppEv
.L52:
	movq	%rbp, %rdx
	leaq	8(%rbp), %rax
	movq	%rax, %rcx
	call	_ZN9__gnu_cxxneIPiSt6vectorIiSaIiEEEEbRKNS_17__normal_iteratorIT_T0_EESA_
	testb	%al, %al
	jne	.L53
	addl	$1, 160(%rbp)
.L51:
	movl	160(%rbp), %eax
	cmpl	120(%rbp), %eax
	jle	.L54
	movl	$1, 156(%rbp)
	movl	tot(%rip), %eax
	movl	%eax, 116(%rbp)
	jmp	.L55
.L60:
	movl	156(%rbp), %eax
	movslq	%eax, %rdx
	movq	%rdx, %rax
	addq	%rax, %rax
	addq	%rdx, %rax
	salq	$3, %rax
	leaq	_g(%rip), %rdx
	addq	%rdx, %rax
	movq	%rax, %rcx
	call	_ZNKSt6vectorIiSaIiEE4sizeEv
	cmpq	$1, %rax
	sete	%al
	testb	%al, %al
	jne	.L89
	movl	$0, 152(%rbp)
	movl	156(%rbp), %eax
	movslq	%eax, %rdx
	movq	%rdx, %rax
	addq	%rax, %rax
	addq	%rdx, %rax
	salq	$3, %rax
	leaq	_g(%rip), %rdx
	addq	%rdx, %rax
	movq	%rax, %rcx
	call	_ZNKSt6vectorIiSaIiEE4sizeEv
	subl	$1, %eax
	movl	%eax, 68(%rbp)
	jmp	.L58
.L59:
	movl	now(%rip), %eax
	addl	$1, %eax
	movl	%eax, now(%rip)
	movl	156(%rbp), %eax
	movslq	%eax, %rdx
	movq	%rdx, %rax
	addq	%rax, %rax
	addq	%rdx, %rax
	salq	$3, %rax
	leaq	_g(%rip), %rdx
	leaq	(%rax,%rdx), %rcx
	movl	152(%rbp), %eax
	cltq
	movq	%rax, %rdx
	call	_ZNSt6vectorIiSaIiEEixEy
	movl	now(%rip), %edx
	movl	(%rax), %ecx
	movslq	%edx, %rax
	leaq	0(,%rax,8), %rdx
	leaq	ans(%rip), %rax
	movl	%ecx, (%rdx,%rax)
	movl	156(%rbp), %eax
	movslq	%eax, %rdx
	movq	%rdx, %rax
	addq	%rax, %rax
	addq	%rdx, %rax
	salq	$3, %rax
	leaq	_g(%rip), %rdx
	leaq	(%rax,%rdx), %rbx
	movl	152(%rbp), %eax
	addl	$1, %eax
	movslq	%eax, %rsi
	movl	156(%rbp), %eax
	movslq	%eax, %rdx
	movq	%rdx, %rax
	addq	%rax, %rax
	addq	%rdx, %rax
	salq	$3, %rax
	leaq	_g(%rip), %rdx
	addq	%rdx, %rax
	movq	%rax, %rcx
	call	_ZNKSt6vectorIiSaIiEE4sizeEv
	movq	%rax, %rcx
	movq	%rsi, %rax
	movl	$0, %edx
	divq	%rcx
	movq	%rdx, %rcx
	movq	%rcx, %rax
	movq	%rax, %rdx
	movq	%rbx, %rcx
	call	_ZNSt6vectorIiSaIiEEixEy
	movl	now(%rip), %edx
	movl	(%rax), %ecx
	movslq	%edx, %rax
	leaq	0(,%rax,8), %rdx
	leaq	4+ans(%rip), %rax
	movl	%ecx, (%rdx,%rax)
	movl	now(%rip), %eax
	cltq
	leaq	0(,%rax,8), %rdx
	leaq	ans(%rip), %rax
	addq	%rdx, %rax
	movq	%rax, %rdx
	leaq	vis(%rip), %rax
	movq	%rax, %rcx
	call	_ZNSt3mapIiS_IiiSt4lessIiESaISt4pairIKiiEEES1_SaIS2_IS3_S6_EEEixERS3_
	movq	%rax, %rcx
	movl	now(%rip), %eax
	cltq
	salq	$3, %rax
	leaq	4(%rax), %rdx
	leaq	ans(%rip), %rax
	addq	%rdx, %rax
	movq	%rax, %rdx
	call	_ZNSt3mapIiiSt4lessIiESaISt4pairIKiiEEEixERS3_
	movl	$1, (%rax)
	addl	$1, 152(%rbp)
.L58:
	movl	152(%rbp), %eax
	cmpl	68(%rbp), %eax
	jle	.L59
	jmp	.L57
.L89:
	nop
.L57:
	addl	$1, 156(%rbp)
.L55:
	movl	156(%rbp), %eax
	cmpl	116(%rbp), %eax
	jle	.L60
	movl	now(%rip), %edx
	movl	m(%rip), %eax
	cmpl	%eax, %edx
	jle	.L61
	leaq	.LC4(%rip), %rax
	movq	%rax, %rcx
	call	puts
	movl	$0, %eax
	jmp	.L46
.L61:
	movl	now(%rip), %edx
	movl	m(%rip), %eax
	cmpl	%eax, %edx
	jge	.L62
	movl	$1, 148(%rbp)
	movl	tot(%rip), %eax
	movl	%eax, 112(%rbp)
	jmp	.L63
.L74:
	movl	148(%rbp), %eax
	movslq	%eax, %rdx
	movq	%rdx, %rax
	addq	%rax, %rax
	addq	%rdx, %rax
	salq	$3, %rax
	leaq	_g(%rip), %rdx
	addq	%rdx, %rax
	movq	%rax, 104(%rbp)
	movq	104(%rbp), %rax
	movq	%rax, %rcx
	call	_ZNSt6vectorIiSaIiEE5beginEv
	movq	%rax, -16(%rbp)
	movq	104(%rbp), %rax
	movq	%rax, %rcx
	call	_ZNSt6vectorIiSaIiEE3endEv
	movq	%rax, -24(%rbp)
	jmp	.L64
.L73:
	leaq	-16(%rbp), %rax
	movq	%rax, %rcx
	call	_ZNK9__gnu_cxx17__normal_iteratorIPiSt6vectorIiSaIiEEEdeEv
	movl	(%rax), %eax
	movl	%eax, -4(%rbp)
	movl	148(%rbp), %eax
	movslq	%eax, %rdx
	movq	%rdx, %rax
	addq	%rax, %rax
	addq	%rdx, %rax
	salq	$3, %rax
	leaq	_g(%rip), %rdx
	addq	%rdx, %rax
	movq	%rax, 96(%rbp)
	movq	96(%rbp), %rax
	movq	%rax, %rcx
	call	_ZNSt6vectorIiSaIiEE5beginEv
	movq	%rax, -40(%rbp)
	movq	96(%rbp), %rax
	movq	%rax, %rcx
	call	_ZNSt6vectorIiSaIiEE3endEv
	movq	%rax, -48(%rbp)
	jmp	.L65
.L72:
	leaq	-40(%rbp), %rax
	movq	%rax, %rcx
	call	_ZNK9__gnu_cxx17__normal_iteratorIPiSt6vectorIiSaIiEEEdeEv
	movl	(%rax), %eax
	movl	%eax, -28(%rbp)
	movl	-4(%rbp), %edx
	movl	-28(%rbp), %eax
	cmpl	%eax, %edx
	je	.L66
	leaq	-4(%rbp), %rax
	movq	%rax, %rdx
	leaq	vis(%rip), %rax
	movq	%rax, %rcx
	call	_ZNSt3mapIiS_IiiSt4lessIiESaISt4pairIKiiEEES1_SaIS2_IS3_S6_EEEixERS3_
	movq	%rax, %rcx
	leaq	-28(%rbp), %rax
	movq	%rax, %rdx
	call	_ZNSt3mapIiiSt4lessIiESaISt4pairIKiiEEEixERS3_
	movl	(%rax), %eax
	cmpl	$1, %eax
	jne	.L67
.L66:
	movl	$1, %eax
	jmp	.L68
.L67:
	movl	$0, %eax
.L68:
	testb	%al, %al
	jne	.L90
	movl	now(%rip), %edx
	movl	m(%rip), %eax
	cmpl	%eax, %edx
	jge	.L71
	movl	now(%rip), %eax
	addl	$1, %eax
	movl	%eax, now(%rip)
	movl	now(%rip), %eax
	movl	-4(%rbp), %ecx
	cltq
	leaq	0(,%rax,8), %rdx
	leaq	ans(%rip), %rax
	movl	%ecx, (%rdx,%rax)
	movl	now(%rip), %eax
	movl	-28(%rbp), %ecx
	cltq
	leaq	0(,%rax,8), %rdx
	leaq	4+ans(%rip), %rax
	movl	%ecx, (%rdx,%rax)
	leaq	-4(%rbp), %rax
	movq	%rax, %rdx
	leaq	vis(%rip), %rax
	movq	%rax, %rcx
	call	_ZNSt3mapIiS_IiiSt4lessIiESaISt4pairIKiiEEES1_SaIS2_IS3_S6_EEEixERS3_
	movq	%rax, %rcx
	leaq	-28(%rbp), %rax
	movq	%rax, %rdx
	call	_ZNSt3mapIiiSt4lessIiESaISt4pairIKiiEEEixERS3_
	movl	$1, (%rax)
	jmp	.L70
.L71:
	call	_Z5Printv
	movl	$0, %eax
	jmp	.L46
.L90:
	nop
.L70:
	leaq	-40(%rbp), %rax
	movq	%rax, %rcx
	call	_ZN9__gnu_cxx17__normal_iteratorIPiSt6vectorIiSaIiEEEppEv
.L65:
	leaq	-48(%rbp), %rdx
	leaq	-40(%rbp), %rax
	movq	%rax, %rcx
	call	_ZN9__gnu_cxxneIPiSt6vectorIiSaIiEEEEbRKNS_17__normal_iteratorIT_T0_EESA_
	testb	%al, %al
	jne	.L72
	leaq	-16(%rbp), %rax
	movq	%rax, %rcx
	call	_ZN9__gnu_cxx17__normal_iteratorIPiSt6vectorIiSaIiEEEppEv
.L64:
	leaq	-24(%rbp), %rdx
	leaq	-16(%rbp), %rax
	movq	%rax, %rcx
	call	_ZN9__gnu_cxxneIPiSt6vectorIiSaIiEEEEbRKNS_17__normal_iteratorIT_T0_EESA_
	testb	%al, %al
	jne	.L73
	addl	$1, 148(%rbp)
.L63:
	movl	148(%rbp), %eax
	cmpl	112(%rbp), %eax
	jle	.L74
.L62:
	movl	now(%rip), %edx
	movl	m(%rip), %eax
	cmpl	%eax, %edx
	jge	.L75
	movl	$1, 144(%rbp)
	movl	tot(%rip), %eax
	subl	$1, %eax
	movl	%eax, 92(%rbp)
	jmp	.L76
.L85:
	movl	144(%rbp), %eax
	addl	$1, %eax
	movl	%eax, 140(%rbp)
	movl	tot(%rip), %eax
	movl	%eax, 88(%rbp)
	jmp	.L77
.L84:
	movl	144(%rbp), %eax
	movslq	%eax, %rdx
	movq	%rdx, %rax
	addq	%rax, %rax
	addq	%rdx, %rax
	salq	$3, %rax
	leaq	_g(%rip), %rdx
	addq	%rdx, %rax
	movq	%rax, 80(%rbp)
	movq	80(%rbp), %rax
	movq	%rax, %rcx
	call	_ZNSt6vectorIiSaIiEE5beginEv
	movq	%rax, -64(%rbp)
	movq	80(%rbp), %rax
	movq	%rax, %rcx
	call	_ZNSt6vectorIiSaIiEE3endEv
	movq	%rax, -72(%rbp)
	jmp	.L78
.L83:
	leaq	-64(%rbp), %rax
	movq	%rax, %rcx
	call	_ZNK9__gnu_cxx17__normal_iteratorIPiSt6vectorIiSaIiEEEdeEv
	movl	(%rax), %eax
	movl	%eax, -52(%rbp)
	movl	140(%rbp), %eax
	movslq	%eax, %rdx
	movq	%rdx, %rax
	addq	%rax, %rax
	addq	%rdx, %rax
	salq	$3, %rax
	leaq	_g(%rip), %rdx
	addq	%rdx, %rax
	movq	%rax, 72(%rbp)
	movq	72(%rbp), %rax
	movq	%rax, %rcx
	call	_ZNSt6vectorIiSaIiEE5beginEv
	movq	%rax, -88(%rbp)
	movq	72(%rbp), %rax
	movq	%rax, %rcx
	call	_ZNSt6vectorIiSaIiEE3endEv
	movq	%rax, -96(%rbp)
	jmp	.L79
.L82:
	leaq	-88(%rbp), %rax
	movq	%rax, %rcx
	call	_ZNK9__gnu_cxx17__normal_iteratorIPiSt6vectorIiSaIiEEEdeEv
	movl	(%rax), %eax
	movl	%eax, -76(%rbp)
	movl	now(%rip), %edx
	movl	m(%rip), %eax
	cmpl	%eax, %edx
	jge	.L80
	movl	now(%rip), %eax
	addl	$1, %eax
	movl	%eax, now(%rip)
	movl	now(%rip), %eax
	movl	-52(%rbp), %ecx
	cltq
	leaq	0(,%rax,8), %rdx
	leaq	ans(%rip), %rax
	movl	%ecx, (%rdx,%rax)
	movl	now(%rip), %eax
	movl	-76(%rbp), %ecx
	cltq
	leaq	0(,%rax,8), %rdx
	leaq	4+ans(%rip), %rax
	movl	%ecx, (%rdx,%rax)
	leaq	-52(%rbp), %rax
	movq	%rax, %rdx
	leaq	vis(%rip), %rax
	movq	%rax, %rcx
	call	_ZNSt3mapIiS_IiiSt4lessIiESaISt4pairIKiiEEES1_SaIS2_IS3_S6_EEEixERS3_
	movq	%rax, %rcx
	leaq	-76(%rbp), %rax
	movq	%rax, %rdx
	call	_ZNSt3mapIiiSt4lessIiESaISt4pairIKiiEEEixERS3_
	movl	$1, (%rax)
	jmp	.L88
.L80:
	call	_Z5Printv
	movl	$0, %eax
	jmp	.L46
.L88:
	leaq	-88(%rbp), %rax
	movq	%rax, %rcx
	call	_ZN9__gnu_cxx17__normal_iteratorIPiSt6vectorIiSaIiEEEppEv
.L79:
	leaq	-96(%rbp), %rdx
	leaq	-88(%rbp), %rax
	movq	%rax, %rcx
	call	_ZN9__gnu_cxxneIPiSt6vectorIiSaIiEEEEbRKNS_17__normal_iteratorIT_T0_EESA_
	testb	%al, %al
	jne	.L82
	leaq	-64(%rbp), %rax
	movq	%rax, %rcx
	call	_ZN9__gnu_cxx17__normal_iteratorIPiSt6vectorIiSaIiEEEppEv
.L78:
	leaq	-72(%rbp), %rdx
	leaq	-64(%rbp), %rax
	movq	%rax, %rcx
	call	_ZN9__gnu_cxxneIPiSt6vectorIiSaIiEEEEbRKNS_17__normal_iteratorIT_T0_EESA_
	testb	%al, %al
	jne	.L83
	addl	$1, 140(%rbp)
.L77:
	movl	140(%rbp), %eax
	cmpl	88(%rbp), %eax
	jle	.L84
	addl	$1, 144(%rbp)
.L76:
	movl	144(%rbp), %eax
	cmpl	92(%rbp), %eax
	jle	.L85
.L75:
	movl	now(%rip), %edx
	movl	m(%rip), %eax
	cmpl	%eax, %edx
	jge	.L86
	leaq	.LC4(%rip), %rax
	movq	%rax, %rcx
	call	puts
	jmp	.L87
.L86:
	call	_Z5Printv
.L87:
	movl	$0, %eax
.L46:
	addq	$304, %rsp
	popq	%rbx
	popq	%rsi
	popq	%rbp
	ret
	.seh_endproc
	.section	.text$_ZSt3maxIyERKT_S2_S2_,"x"
	.linkonce discard
	.globl	_ZSt3maxIyERKT_S2_S2_
	.def	_ZSt3maxIyERKT_S2_S2_;	.scl	2;	.type	32;	.endef
	.seh_proc	_ZSt3maxIyERKT_S2_S2_
_ZSt3maxIyERKT_S2_S2_:
.LFB10393:
	pushq	%rbp
	.seh_pushreg	%rbp
	movq	%rsp, %rbp
	.seh_setframe	%rbp, 0
	.seh_endprologue
	movq	%rcx, 16(%rbp)
	movq	%rdx, 24(%rbp)
	movq	16(%rbp), %rax
	movq	(%rax), %rdx
	movq	24(%rbp), %rax
	movq	(%rax), %rax
	cmpq	%rax, %rdx
	jnb	.L92
	movq	24(%rbp), %rax
	jmp	.L93
.L92:
	movq	16(%rbp), %rax
.L93:
	popq	%rbp
	ret
	.seh_endproc
	.section	.text$_ZNSt6vectorIiSaIiEED1Ev,"x"
	.linkonce discard
	.align 2
	.globl	_ZNSt6vectorIiSaIiEED1Ev
	.def	_ZNSt6vectorIiSaIiEED1Ev;	.scl	2;	.type	32;	.endef
	.seh_proc	_ZNSt6vectorIiSaIiEED1Ev
_ZNSt6vectorIiSaIiEED1Ev:
.LFB10626:
	pushq	%rbp
	.seh_pushreg	%rbp
	movq	%rsp, %rbp
	.seh_setframe	%rbp, 0
	subq	$32, %rsp
	.seh_stackalloc	32
	.seh_endprologue
	movq	%rcx, 16(%rbp)
	movq	16(%rbp), %rax
	movq	%rax, %rcx
	call	_ZNSt12_Vector_baseIiSaIiEE19_M_get_Tp_allocatorEv
	movq	%rax, %rcx
	movq	16(%rbp), %rax
	movq	8(%rax), %rdx
	movq	16(%rbp), %rax
	movq	(%rax), %rax
	movq	%rcx, %r8
	movq	%rax, %rcx
	call	_ZSt8_DestroyIPiiEvT_S1_RSaIT0_E
	movq	16(%rbp), %rax
	movq	%rax, %rcx
	call	_ZNSt12_Vector_baseIiSaIiEED2Ev
	nop
	addq	$32, %rsp
	popq	%rbp
	ret
	.def	__gxx_personality_seh0;	.scl	2;	.type	32;	.endef
	.seh_handler	__gxx_personality_seh0, @unwind, @except
	.seh_handlerdata
.LLSDA10626:
	.byte	0xff
	.byte	0xff
	.byte	0x1
	.uleb128 .LLSDACSE10626-.LLSDACSB10626
.LLSDACSB10626:
.LLSDACSE10626:
	.section	.text$_ZNSt6vectorIiSaIiEED1Ev,"x"
	.linkonce discard
	.seh_endproc
	.section	.text$_ZNSt12_Vector_baseIiSaIiEE12_Vector_implC1Ev,"x"
	.linkonce discard
	.align 2
	.globl	_ZNSt12_Vector_baseIiSaIiEE12_Vector_implC1Ev
	.def	_ZNSt12_Vector_baseIiSaIiEE12_Vector_implC1Ev;	.scl	2;	.type	32;	.endef
	.seh_proc	_ZNSt12_Vector_baseIiSaIiEE12_Vector_implC1Ev
_ZNSt12_Vector_baseIiSaIiEE12_Vector_implC1Ev:
.LFB10629:
	pushq	%rbp
	.seh_pushreg	%rbp
	movq	%rsp, %rbp
	.seh_setframe	%rbp, 0
	subq	$32, %rsp
	.seh_stackalloc	32
	.seh_endprologue
	movq	%rcx, 16(%rbp)
	movq	16(%rbp), %rax
	movq	%rax, %rcx
	call	_ZNSaIiEC2Ev
	movq	16(%rbp), %rax
	movq	%rax, %rcx
	call	_ZNSt12_Vector_baseIiSaIiEE17_Vector_impl_dataC2Ev
	nop
	addq	$32, %rsp
	popq	%rbp
	ret
	.seh_endproc
	.section	.text$_ZNSaIiED2Ev,"x"
	.linkonce discard
	.align 2
	.globl	_ZNSaIiED2Ev
	.def	_ZNSaIiED2Ev;	.scl	2;	.type	32;	.endef
	.seh_proc	_ZNSaIiED2Ev
_ZNSaIiED2Ev:
.LFB10631:
	pushq	%rbp
	.seh_pushreg	%rbp
	movq	%rsp, %rbp
	.seh_setframe	%rbp, 0
	subq	$32, %rsp
	.seh_stackalloc	32
	.seh_endprologue
	movq	%rcx, 16(%rbp)
	movq	16(%rbp), %rax
	movq	%rax, %rcx
	call	_ZNSt15__new_allocatorIiED2Ev
	nop
	addq	$32, %rsp
	popq	%rbp
	ret
	.seh_endproc
	.section	.text$_ZNSt12_Vector_baseIiSaIiEED2Ev,"x"
	.linkonce discard
	.align 2
	.globl	_ZNSt12_Vector_baseIiSaIiEED2Ev
	.def	_ZNSt12_Vector_baseIiSaIiEED2Ev;	.scl	2;	.type	32;	.endef
	.seh_proc	_ZNSt12_Vector_baseIiSaIiEED2Ev
_ZNSt12_Vector_baseIiSaIiEED2Ev:
.LFB10634:
	pushq	%rbp
	.seh_pushreg	%rbp
	movq	%rsp, %rbp
	.seh_setframe	%rbp, 0
	subq	$32, %rsp
	.seh_stackalloc	32
	.seh_endprologue
	movq	%rcx, 16(%rbp)
	movq	16(%rbp), %rax
	movq	16(%rax), %rdx
	movq	16(%rbp), %rax
	movq	(%rax), %rax
	subq	%rax, %rdx
	movq	%rdx, %rax
	sarq	$2, %rax
	movq	%rax, %rcx
	movq	16(%rbp), %rax
	movq	(%rax), %rdx
	movq	16(%rbp), %rax
	movq	%rcx, %r8
	movq	%rax, %rcx
	call	_ZNSt12_Vector_baseIiSaIiEE13_M_deallocateEPiy
	movq	16(%rbp), %rax
	movq	%rax, %rcx
	call	_ZNSt12_Vector_baseIiSaIiEE12_Vector_implD1Ev
	nop
	addq	$32, %rsp
	popq	%rbp
	ret
	.seh_handler	__gxx_personality_seh0, @unwind, @except
	.seh_handlerdata
.LLSDA10634:
	.byte	0xff
	.byte	0xff
	.byte	0x1
	.uleb128 .LLSDACSE10634-.LLSDACSB10634
.LLSDACSB10634:
.LLSDACSE10634:
	.section	.text$_ZNSt12_Vector_baseIiSaIiEED2Ev,"x"
	.linkonce discard
	.seh_endproc
	.section	.text$_ZNSt8_Rb_treeIiSt4pairIKiSt3mapIiiSt4lessIiESaIS0_IS1_iEEEESt10_Select1stIS8_ES4_SaIS8_EE13_Rb_tree_implIS4_Lb1EEC1Ev,"x"
	.linkonce discard
	.align 2
	.globl	_ZNSt8_Rb_treeIiSt4pairIKiSt3mapIiiSt4lessIiESaIS0_IS1_iEEEESt10_Select1stIS8_ES4_SaIS8_EE13_Rb_tree_implIS4_Lb1EEC1Ev
	.def	_ZNSt8_Rb_treeIiSt4pairIKiSt3mapIiiSt4lessIiESaIS0_IS1_iEEEESt10_Select1stIS8_ES4_SaIS8_EE13_Rb_tree_implIS4_Lb1EEC1Ev;	.scl	2;	.type	32;	.endef
	.seh_proc	_ZNSt8_Rb_treeIiSt4pairIKiSt3mapIiiSt4lessIiESaIS0_IS1_iEEEESt10_Select1stIS8_ES4_SaIS8_EE13_Rb_tree_implIS4_Lb1EEC1Ev
_ZNSt8_Rb_treeIiSt4pairIKiSt3mapIiiSt4lessIiESaIS0_IS1_iEEEESt10_Select1stIS8_ES4_SaIS8_EE13_Rb_tree_implIS4_Lb1EEC1Ev:
.LFB10638:
	pushq	%rbp
	.seh_pushreg	%rbp
	movq	%rsp, %rbp
	.seh_setframe	%rbp, 0
	subq	$32, %rsp
	.seh_stackalloc	32
	.seh_endprologue
	movq	%rcx, 16(%rbp)
	movq	16(%rbp), %rax
	movq	%rax, %rcx
	call	_ZNSaISt13_Rb_tree_nodeISt4pairIKiSt3mapIiiSt4lessIiESaIS0_IS1_iEEEEEEC2Ev
	movq	16(%rbp), %rax
	movq	%rax, %rcx
	call	_ZNSt20_Rb_tree_key_compareISt4lessIiEEC2Ev
	movq	16(%rbp), %rax
	addq	$8, %rax
	movq	%rax, %rcx
	call	_ZNSt15_Rb_tree_headerC2Ev
	nop
	addq	$32, %rsp
	popq	%rbp
	ret
	.seh_endproc
	.section	.text$_ZNSaISt13_Rb_tree_nodeISt4pairIKiSt3mapIiiSt4lessIiESaIS0_IS1_iEEEEEED2Ev,"x"
	.linkonce discard
	.align 2
	.globl	_ZNSaISt13_Rb_tree_nodeISt4pairIKiSt3mapIiiSt4lessIiESaIS0_IS1_iEEEEEED2Ev
	.def	_ZNSaISt13_Rb_tree_nodeISt4pairIKiSt3mapIiiSt4lessIiESaIS0_IS1_iEEEEEED2Ev;	.scl	2;	.type	32;	.endef
	.seh_proc	_ZNSaISt13_Rb_tree_nodeISt4pairIKiSt3mapIiiSt4lessIiESaIS0_IS1_iEEEEEED2Ev
_ZNSaISt13_Rb_tree_nodeISt4pairIKiSt3mapIiiSt4lessIiESaIS0_IS1_iEEEEEED2Ev:
.LFB10640:
	pushq	%rbp
	.seh_pushreg	%rbp
	movq	%rsp, %rbp
	.seh_setframe	%rbp, 0
	subq	$32, %rsp
	.seh_stackalloc	32
	.seh_endprologue
	movq	%rcx, 16(%rbp)
	movq	16(%rbp), %rax
	movq	%rax, %rcx
	call	_ZNSt15__new_allocatorISt13_Rb_tree_nodeISt4pairIKiSt3mapIiiSt4lessIiESaIS1_IS2_iEEEEEED2Ev
	nop
	addq	$32, %rsp
	popq	%rbp
	ret
	.seh_endproc
	.section	.text$_ZNSt8_Rb_treeIiSt4pairIKiSt3mapIiiSt4lessIiESaIS0_IS1_iEEEESt10_Select1stIS8_ES4_SaIS8_EED1Ev,"x"
	.linkonce discard
	.align 2
	.globl	_ZNSt8_Rb_treeIiSt4pairIKiSt3mapIiiSt4lessIiESaIS0_IS1_iEEEESt10_Select1stIS8_ES4_SaIS8_EED1Ev
	.def	_ZNSt8_Rb_treeIiSt4pairIKiSt3mapIiiSt4lessIiESaIS0_IS1_iEEEESt10_Select1stIS8_ES4_SaIS8_EED1Ev;	.scl	2;	.type	32;	.endef
	.seh_proc	_ZNSt8_Rb_treeIiSt4pairIKiSt3mapIiiSt4lessIiESaIS0_IS1_iEEEESt10_Select1stIS8_ES4_SaIS8_EED1Ev
_ZNSt8_Rb_treeIiSt4pairIKiSt3mapIiiSt4lessIiESaIS0_IS1_iEEEESt10_Select1stIS8_ES4_SaIS8_EED1Ev:
.LFB10644:
	pushq	%rbp
	.seh_pushreg	%rbp
	movq	%rsp, %rbp
	.seh_setframe	%rbp, 0
	subq	$32, %rsp
	.seh_stackalloc	32
	.seh_endprologue
	movq	%rcx, 16(%rbp)
	movq	16(%rbp), %rax
	movq	%rax, %rcx
	call	_ZNSt8_Rb_treeIiSt4pairIKiSt3mapIiiSt4lessIiESaIS0_IS1_iEEEESt10_Select1stIS8_ES4_SaIS8_EE8_M_beginEv
	movq	%rax, %rdx
	movq	16(%rbp), %rax
	movq	%rax, %rcx
	call	_ZNSt8_Rb_treeIiSt4pairIKiSt3mapIiiSt4lessIiESaIS0_IS1_iEEEESt10_Select1stIS8_ES4_SaIS8_EE8_M_eraseEPSt13_Rb_tree_nodeIS8_E
	movq	16(%rbp), %rax
	movq	%rax, %rcx
	call	_ZNSt8_Rb_treeIiSt4pairIKiSt3mapIiiSt4lessIiESaIS0_IS1_iEEEESt10_Select1stIS8_ES4_SaIS8_EE13_Rb_tree_implIS4_Lb1EED1Ev
	nop
	addq	$32, %rsp
	popq	%rbp
	ret
	.seh_handler	__gxx_personality_seh0, @unwind, @except
	.seh_handlerdata
.LLSDA10644:
	.byte	0xff
	.byte	0xff
	.byte	0x1
	.uleb128 .LLSDACSE10644-.LLSDACSB10644
.LLSDACSB10644:
.LLSDACSE10644:
	.section	.text$_ZNSt8_Rb_treeIiSt4pairIKiSt3mapIiiSt4lessIiESaIS0_IS1_iEEEESt10_Select1stIS8_ES4_SaIS8_EED1Ev,"x"
	.linkonce discard
	.seh_endproc
	.section	.text$_Z5printIiEvT_,"x"
	.linkonce discard
	.globl	_Z5printIiEvT_
	.def	_Z5printIiEvT_;	.scl	2;	.type	32;	.endef
	.seh_proc	_Z5printIiEvT_
_Z5printIiEvT_:
.LFB10645:
	pushq	%rbp
	.seh_pushreg	%rbp
	movq	%rsp, %rbp
	.seh_setframe	%rbp, 0
	subq	$32, %rsp
	.seh_stackalloc	32
	.seh_endprologue
	movl	%ecx, 16(%rbp)
	cmpl	$0, 16(%rbp)
	jns	.L102
	negl	16(%rbp)
	movl	$45, %ecx
	call	putchar
.L102:
	cmpl	$9, 16(%rbp)
	jle	.L103
	movl	16(%rbp), %eax
	movslq	%eax, %rdx
	imulq	$1717986919, %rdx, %rdx
	shrq	$32, %rdx
	movl	%edx, %ecx
	sarl	$2, %ecx
	cltd
	movl	%ecx, %eax
	subl	%edx, %eax
	movl	%eax, %ecx
	call	_Z5printIiEvT_
.L103:
	movl	16(%rbp), %ecx
	movslq	%ecx, %rax
	imulq	$1717986919, %rax, %rax
	shrq	$32, %rax
	movl	%eax, %edx
	sarl	$2, %edx
	movl	%ecx, %eax
	sarl	$31, %eax
	subl	%eax, %edx
	movl	%edx, %eax
	sall	$2, %eax
	addl	%edx, %eax
	addl	%eax, %eax
	subl	%eax, %ecx
	movl	%ecx, %edx
	leal	48(%rdx), %eax
	movl	%eax, %ecx
	call	putchar
	nop
	addq	$32, %rsp
	popq	%rbp
	ret
	.seh_endproc
	.section	.text$_ZNSt6vectorIiSaIiEE12emplace_backIJRiEEES3_DpOT_,"x"
	.linkonce discard
	.align 2
	.globl	_ZNSt6vectorIiSaIiEE12emplace_backIJRiEEES3_DpOT_
	.def	_ZNSt6vectorIiSaIiEE12emplace_backIJRiEEES3_DpOT_;	.scl	2;	.type	32;	.endef
	.seh_proc	_ZNSt6vectorIiSaIiEE12emplace_backIJRiEEES3_DpOT_
_ZNSt6vectorIiSaIiEE12emplace_backIJRiEEES3_DpOT_:
.LFB10646:
	pushq	%rbp
	.seh_pushreg	%rbp
	pushq	%rbx
	.seh_pushreg	%rbx
	subq	$40, %rsp
	.seh_stackalloc	40
	leaq	32(%rsp), %rbp
	.seh_setframe	%rbp, 32
	.seh_endprologue
	movq	%rcx, 32(%rbp)
	movq	%rdx, 40(%rbp)
	movq	32(%rbp), %rax
	movq	8(%rax), %rdx
	movq	32(%rbp), %rax
	movq	16(%rax), %rax
	cmpq	%rax, %rdx
	je	.L105
	movq	40(%rbp), %rax
	movq	%rax, %rcx
	call	_ZSt7forwardIRiEOT_RNSt16remove_referenceIS1_E4typeE
	movq	%rax, %rcx
	movq	32(%rbp), %rax
	movq	8(%rax), %rdx
	movq	32(%rbp), %rax
	movq	%rcx, %r8
	movq	%rax, %rcx
	call	_ZNSt16allocator_traitsISaIiEE9constructIiJRiEEEvRS0_PT_DpOT0_
	movq	32(%rbp), %rax
	movq	8(%rax), %rax
	leaq	4(%rax), %rdx
	movq	32(%rbp), %rax
	movq	%rdx, 8(%rax)
	jmp	.L106
.L105:
	movq	40(%rbp), %rax
	movq	%rax, %rcx
	call	_ZSt7forwardIRiEOT_RNSt16remove_referenceIS1_E4typeE
	movq	%rax, %rbx
	movq	32(%rbp), %rax
	movq	%rax, %rcx
	call	_ZNSt6vectorIiSaIiEE3endEv
	movq	%rax, %rdx
	movq	32(%rbp), %rax
	movq	%rbx, %r8
	movq	%rax, %rcx
	call	_ZNSt6vectorIiSaIiEE17_M_realloc_insertIJRiEEEvN9__gnu_cxx17__normal_iteratorIPiS1_EEDpOT_
.L106:
	movq	32(%rbp), %rax
	movq	%rax, %rcx
	call	_ZNSt6vectorIiSaIiEE4backEv
	addq	$40, %rsp
	popq	%rbx
	popq	%rbp
	ret
	.seh_endproc
	.section	.text$_ZNKSt6vectorIiSaIiEE4sizeEv,"x"
	.linkonce discard
	.align 2
	.globl	_ZNKSt6vectorIiSaIiEE4sizeEv
	.def	_ZNKSt6vectorIiSaIiEE4sizeEv;	.scl	2;	.type	32;	.endef
	.seh_proc	_ZNKSt6vectorIiSaIiEE4sizeEv
_ZNKSt6vectorIiSaIiEE4sizeEv:
.LFB10648:
	pushq	%rbp
	.seh_pushreg	%rbp
	movq	%rsp, %rbp
	.seh_setframe	%rbp, 0
	.seh_endprologue
	movq	%rcx, 16(%rbp)
	movq	16(%rbp), %rax
	movq	8(%rax), %rdx
	movq	16(%rbp), %rax
	movq	(%rax), %rax
	subq	%rax, %rdx
	movq	%rdx, %rax
	sarq	$2, %rax
	popq	%rbp
	ret
	.seh_endproc
	.text
	.def	_ZSt4sortIP4nodeZ4mainEUlS0_S0_E_EvT_S3_T0_;	.scl	3;	.type	32;	.endef
	.seh_proc	_ZSt4sortIP4nodeZ4mainEUlS0_S0_E_EvT_S3_T0_
_ZSt4sortIP4nodeZ4mainEUlS0_S0_E_EvT_S3_T0_:
.LFB10649:
	pushq	%rbp
	.seh_pushreg	%rbp
	pushq	%rbx
	.seh_pushreg	%rbx
	subq	$40, %rsp
	.seh_stackalloc	40
	leaq	32(%rsp), %rbp
	.seh_setframe	%rbp, 32
	.seh_endprologue
	movq	%rcx, 32(%rbp)
	movq	%rdx, 40(%rbp)
	movl	%eax, %ecx
	call	_ZN9__gnu_cxx5__ops16__iter_comp_iterIZ4mainEUl4nodeS2_E_EENS0_15_Iter_comp_iterIT_EES5_
	movq	40(%rbp), %rdx
	movq	32(%rbp), %rax
	movl	%ebx, %r8d
	movq	%rax, %rcx
	call	_ZSt6__sortIP4nodeN9__gnu_cxx5__ops15_Iter_comp_iterIZ4mainEUlS0_S0_E_EEEvT_S7_T0_
	nop
	addq	$40, %rsp
	popq	%rbx
	popq	%rbp
	ret
	.seh_endproc
	.section	.text$_ZNSt6vectorIiSaIiEE5beginEv,"x"
	.linkonce discard
	.align 2
	.globl	_ZNSt6vectorIiSaIiEE5beginEv
	.def	_ZNSt6vectorIiSaIiEE5beginEv;	.scl	2;	.type	32;	.endef
	.seh_proc	_ZNSt6vectorIiSaIiEE5beginEv
_ZNSt6vectorIiSaIiEE5beginEv:
.LFB10650:
	pushq	%rbp
	.seh_pushreg	%rbp
	movq	%rsp, %rbp
	.seh_setframe	%rbp, 0
	subq	$48, %rsp
	.seh_stackalloc	48
	.seh_endprologue
	movq	%rcx, 16(%rbp)
	movq	16(%rbp), %rdx
	leaq	-8(%rbp), %rax
	movq	%rax, %rcx
	call	_ZN9__gnu_cxx17__normal_iteratorIPiSt6vectorIiSaIiEEEC1ERKS1_
	movq	-8(%rbp), %rax
	addq	$48, %rsp
	popq	%rbp
	ret
	.seh_endproc
	.section	.text$_ZNSt6vectorIiSaIiEE3endEv,"x"
	.linkonce discard
	.align 2
	.globl	_ZNSt6vectorIiSaIiEE3endEv
	.def	_ZNSt6vectorIiSaIiEE3endEv;	.scl	2;	.type	32;	.endef
	.seh_proc	_ZNSt6vectorIiSaIiEE3endEv
_ZNSt6vectorIiSaIiEE3endEv:
.LFB10651:
	pushq	%rbp
	.seh_pushreg	%rbp
	movq	%rsp, %rbp
	.seh_setframe	%rbp, 0
	subq	$48, %rsp
	.seh_stackalloc	48
	.seh_endprologue
	movq	%rcx, 16(%rbp)
	movq	16(%rbp), %rax
	leaq	8(%rax), %rdx
	leaq	-8(%rbp), %rax
	movq	%rax, %rcx
	call	_ZN9__gnu_cxx17__normal_iteratorIPiSt6vectorIiSaIiEEEC1ERKS1_
	movq	-8(%rbp), %rax
	addq	$48, %rsp
	popq	%rbp
	ret
	.seh_endproc
	.section	.text$_ZN9__gnu_cxxneIPiSt6vectorIiSaIiEEEEbRKNS_17__normal_iteratorIT_T0_EESA_,"x"
	.linkonce discard
	.globl	_ZN9__gnu_cxxneIPiSt6vectorIiSaIiEEEEbRKNS_17__normal_iteratorIT_T0_EESA_
	.def	_ZN9__gnu_cxxneIPiSt6vectorIiSaIiEEEEbRKNS_17__normal_iteratorIT_T0_EESA_;	.scl	2;	.type	32;	.endef
	.seh_proc	_ZN9__gnu_cxxneIPiSt6vectorIiSaIiEEEEbRKNS_17__normal_iteratorIT_T0_EESA_
_ZN9__gnu_cxxneIPiSt6vectorIiSaIiEEEEbRKNS_17__normal_iteratorIT_T0_EESA_:
.LFB10652:
	pushq	%rbp
	.seh_pushreg	%rbp
	pushq	%rbx
	.seh_pushreg	%rbx
	subq	$40, %rsp
	.seh_stackalloc	40
	leaq	32(%rsp), %rbp
	.seh_setframe	%rbp, 32
	.seh_endprologue
	movq	%rcx, 32(%rbp)
	movq	%rdx, 40(%rbp)
	movq	32(%rbp), %rax
	movq	%rax, %rcx
	call	_ZNK9__gnu_cxx17__normal_iteratorIPiSt6vectorIiSaIiEEE4baseEv
	movq	(%rax), %rbx
	movq	40(%rbp), %rax
	movq	%rax, %rcx
	call	_ZNK9__gnu_cxx17__normal_iteratorIPiSt6vectorIiSaIiEEE4baseEv
	movq	(%rax), %rax
	cmpq	%rax, %rbx
	setne	%al
	addq	$40, %rsp
	popq	%rbx
	popq	%rbp
	ret
	.seh_endproc
	.section	.text$_ZN9__gnu_cxx17__normal_iteratorIPiSt6vectorIiSaIiEEEppEv,"x"
	.linkonce discard
	.align 2
	.globl	_ZN9__gnu_cxx17__normal_iteratorIPiSt6vectorIiSaIiEEEppEv
	.def	_ZN9__gnu_cxx17__normal_iteratorIPiSt6vectorIiSaIiEEEppEv;	.scl	2;	.type	32;	.endef
	.seh_proc	_ZN9__gnu_cxx17__normal_iteratorIPiSt6vectorIiSaIiEEEppEv
_ZN9__gnu_cxx17__normal_iteratorIPiSt6vectorIiSaIiEEEppEv:
.LFB10653:
	pushq	%rbp
	.seh_pushreg	%rbp
	movq	%rsp, %rbp
	.seh_setframe	%rbp, 0
	.seh_endprologue
	movq	%rcx, 16(%rbp)
	movq	16(%rbp), %rax
	movq	(%rax), %rax
	leaq	4(%rax), %rdx
	movq	16(%rbp), %rax
	movq	%rdx, (%rax)
	movq	16(%rbp), %rax
	popq	%rbp
	ret
	.seh_endproc
	.section	.text$_ZNK9__gnu_cxx17__normal_iteratorIPiSt6vectorIiSaIiEEEdeEv,"x"
	.linkonce discard
	.align 2
	.globl	_ZNK9__gnu_cxx17__normal_iteratorIPiSt6vectorIiSaIiEEEdeEv
	.def	_ZNK9__gnu_cxx17__normal_iteratorIPiSt6vectorIiSaIiEEEdeEv;	.scl	2;	.type	32;	.endef
	.seh_proc	_ZNK9__gnu_cxx17__normal_iteratorIPiSt6vectorIiSaIiEEEdeEv
_ZNK9__gnu_cxx17__normal_iteratorIPiSt6vectorIiSaIiEEEdeEv:
.LFB10654:
	pushq	%rbp
	.seh_pushreg	%rbp
	movq	%rsp, %rbp
	.seh_setframe	%rbp, 0
	.seh_endprologue
	movq	%rcx, 16(%rbp)
	movq	16(%rbp), %rax
	movq	(%rax), %rax
	popq	%rbp
	ret
	.seh_endproc
	.section	.text$_ZNSt6vectorIiSaIiEEixEy,"x"
	.linkonce discard
	.align 2
	.globl	_ZNSt6vectorIiSaIiEEixEy
	.def	_ZNSt6vectorIiSaIiEEixEy;	.scl	2;	.type	32;	.endef
	.seh_proc	_ZNSt6vectorIiSaIiEEixEy
_ZNSt6vectorIiSaIiEEixEy:
.LFB10655:
	pushq	%rbp
	.seh_pushreg	%rbp
	movq	%rsp, %rbp
	.seh_setframe	%rbp, 0
	.seh_endprologue
	movq	%rcx, 16(%rbp)
	movq	%rdx, 24(%rbp)
	movq	16(%rbp), %rax
	movq	(%rax), %rdx
	movq	24(%rbp), %rax
	salq	$2, %rax
	addq	%rdx, %rax
	popq	%rbp
	ret
	.seh_endproc
	.section	.text$_ZNSt3mapIiS_IiiSt4lessIiESaISt4pairIKiiEEES1_SaIS2_IS3_S6_EEEixERS3_,"x"
	.linkonce discard
	.align 2
	.globl	_ZNSt3mapIiS_IiiSt4lessIiESaISt4pairIKiiEEES1_SaIS2_IS3_S6_EEEixERS3_
	.def	_ZNSt3mapIiS_IiiSt4lessIiESaISt4pairIKiiEEES1_SaIS2_IS3_S6_EEEixERS3_;	.scl	2;	.type	32;	.endef
	.seh_proc	_ZNSt3mapIiS_IiiSt4lessIiESaISt4pairIKiiEEES1_SaIS2_IS3_S6_EEEixERS3_
_ZNSt3mapIiS_IiiSt4lessIiESaISt4pairIKiiEEES1_SaIS2_IS3_S6_EEEixERS3_:
.LFB10656:
	pushq	%rbp
	.seh_pushreg	%rbp
	pushq	%rbx
	.seh_pushreg	%rbx
	subq	$104, %rsp
	.seh_stackalloc	104
	leaq	96(%rsp), %rbp
	.seh_setframe	%rbp, 96
	.seh_endprologue
	movq	%rcx, 32(%rbp)
	movq	%rdx, 40(%rbp)
	movq	40(%rbp), %rdx
	movq	32(%rbp), %rax
	movq	%rax, %rcx
	call	_ZNSt3mapIiS_IiiSt4lessIiESaISt4pairIKiiEEES1_SaIS2_IS3_S6_EEE11lower_boundERS3_
	movq	%rax, -40(%rbp)
	movq	32(%rbp), %rax
	movq	%rax, %rcx
	call	_ZNSt3mapIiS_IiiSt4lessIiESaISt4pairIKiiEEES1_SaIS2_IS3_S6_EEE3endEv
	movq	%rax, -32(%rbp)
	leaq	-32(%rbp), %rdx
	leaq	-40(%rbp), %rax
	movq	%rax, %rcx
	call	_ZSteqRKSt17_Rb_tree_iteratorISt4pairIKiSt3mapIiiSt4lessIiESaIS0_IS1_iEEEEESB_
	testb	%al, %al
	jne	.L124
	movq	32(%rbp), %rax
	movq	%rax, %rcx
	call	_ZNKSt3mapIiS_IiiSt4lessIiESaISt4pairIKiiEEES1_SaIS2_IS3_S6_EEE8key_compEv
	leaq	-40(%rbp), %rax
	movq	%rax, %rcx
	call	_ZNKSt17_Rb_tree_iteratorISt4pairIKiSt3mapIiiSt4lessIiESaIS0_IS1_iEEEEEdeEv
	movq	%rax, %rcx
	movq	40(%rbp), %rdx
	leaq	-18(%rbp), %rax
	movq	%rcx, %r8
	movq	%rax, %rcx
	call	_ZNKSt4lessIiEclERKiS2_
	testb	%al, %al
	je	.L125
.L124:
	movl	$1, %eax
	jmp	.L126
.L125:
	movl	$0, %eax
.L126:
	testb	%al, %al
	je	.L127
	movq	32(%rbp), %rbx
	movq	40(%rbp), %rdx
	leaq	-16(%rbp), %rax
	movq	%rax, %rcx
	call	_ZNSt5tupleIJRKiEEC1ILb1ELb1EEES1_
	leaq	-40(%rbp), %rdx
	leaq	-8(%rbp), %rax
	movq	%rax, %rcx
	call	_ZNSt23_Rb_tree_const_iteratorISt4pairIKiSt3mapIiiSt4lessIiESaIS0_IS1_iEEEEEC1ERKSt17_Rb_tree_iteratorIS8_E
	leaq	-16(%rbp), %rcx
	movq	-8(%rbp), %rax
	leaq	-17(%rbp), %rdx
	movq	%rdx, 32(%rsp)
	movq	%rcx, %r9
	leaq	_ZSt19piecewise_construct(%rip), %r8
	movq	%rax, %rdx
	movq	%rbx, %rcx
	call	_ZNSt8_Rb_treeIiSt4pairIKiSt3mapIiiSt4lessIiESaIS0_IS1_iEEEESt10_Select1stIS8_ES4_SaIS8_EE22_M_emplace_hint_uniqueIJRKSt21piecewise_construct_tSt5tupleIJRS1_EESH_IJEEEEESt17_Rb_tree_iteratorIS8_ESt23_Rb_tree_const_iteratorIS8_EDpOT_
	movq	%rax, -40(%rbp)
.L127:
	leaq	-40(%rbp), %rax
	movq	%rax, %rcx
	call	_ZNKSt17_Rb_tree_iteratorISt4pairIKiSt3mapIiiSt4lessIiESaIS0_IS1_iEEEEEdeEv
	addq	$8, %rax
	addq	$104, %rsp
	popq	%rbx
	popq	%rbp
	ret
	.seh_endproc
	.section	.text$_ZNSt3mapIiiSt4lessIiESaISt4pairIKiiEEEixERS3_,"x"
	.linkonce discard
	.align 2
	.globl	_ZNSt3mapIiiSt4lessIiESaISt4pairIKiiEEEixERS3_
	.def	_ZNSt3mapIiiSt4lessIiESaISt4pairIKiiEEEixERS3_;	.scl	2;	.type	32;	.endef
	.seh_proc	_ZNSt3mapIiiSt4lessIiESaISt4pairIKiiEEEixERS3_
_ZNSt3mapIiiSt4lessIiESaISt4pairIKiiEEEixERS3_:
.LFB10664:
	pushq	%rbp
	.seh_pushreg	%rbp
	pushq	%rbx
	.seh_pushreg	%rbx
	subq	$104, %rsp
	.seh_stackalloc	104
	leaq	96(%rsp), %rbp
	.seh_setframe	%rbp, 96
	.seh_endprologue
	movq	%rcx, 32(%rbp)
	movq	%rdx, 40(%rbp)
	movq	40(%rbp), %rdx
	movq	32(%rbp), %rax
	movq	%rax, %rcx
	call	_ZNSt3mapIiiSt4lessIiESaISt4pairIKiiEEE11lower_boundERS3_
	movq	%rax, -40(%rbp)
	movq	32(%rbp), %rax
	movq	%rax, %rcx
	call	_ZNSt3mapIiiSt4lessIiESaISt4pairIKiiEEE3endEv
	movq	%rax, -32(%rbp)
	leaq	-32(%rbp), %rdx
	leaq	-40(%rbp), %rax
	movq	%rax, %rcx
	call	_ZSteqRKSt17_Rb_tree_iteratorISt4pairIKiiEES5_
	testb	%al, %al
	jne	.L130
	movq	32(%rbp), %rax
	movq	%rax, %rcx
	call	_ZNKSt3mapIiiSt4lessIiESaISt4pairIKiiEEE8key_compEv
	leaq	-40(%rbp), %rax
	movq	%rax, %rcx
	call	_ZNKSt17_Rb_tree_iteratorISt4pairIKiiEEdeEv
	movq	%rax, %rcx
	movq	40(%rbp), %rdx
	leaq	-18(%rbp), %rax
	movq	%rcx, %r8
	movq	%rax, %rcx
	call	_ZNKSt4lessIiEclERKiS2_
	testb	%al, %al
	je	.L131
.L130:
	movl	$1, %eax
	jmp	.L132
.L131:
	movl	$0, %eax
.L132:
	testb	%al, %al
	je	.L133
	movq	32(%rbp), %rbx
	movq	40(%rbp), %rdx
	leaq	-16(%rbp), %rax
	movq	%rax, %rcx
	call	_ZNSt5tupleIJRKiEEC1ILb1ELb1EEES1_
	leaq	-40(%rbp), %rdx
	leaq	-8(%rbp), %rax
	movq	%rax, %rcx
	call	_ZNSt23_Rb_tree_const_iteratorISt4pairIKiiEEC1ERKSt17_Rb_tree_iteratorIS2_E
	leaq	-16(%rbp), %rcx
	movq	-8(%rbp), %rax
	leaq	-17(%rbp), %rdx
	movq	%rdx, 32(%rsp)
	movq	%rcx, %r9
	leaq	_ZSt19piecewise_construct(%rip), %r8
	movq	%rax, %rdx
	movq	%rbx, %rcx
	call	_ZNSt8_Rb_treeIiSt4pairIKiiESt10_Select1stIS2_ESt4lessIiESaIS2_EE22_M_emplace_hint_uniqueIJRKSt21piecewise_construct_tSt5tupleIJRS1_EESD_IJEEEEESt17_Rb_tree_iteratorIS2_ESt23_Rb_tree_const_iteratorIS2_EDpOT_
	movq	%rax, -40(%rbp)
.L133:
	leaq	-40(%rbp), %rax
	movq	%rax, %rcx
	call	_ZNKSt17_Rb_tree_iteratorISt4pairIKiiEEdeEv
	addq	$4, %rax
	addq	$104, %rsp
	popq	%rbx
	popq	%rbp
	ret
	.seh_endproc
	.section	.text$_ZNSt12_Vector_baseIiSaIiEE19_M_get_Tp_allocatorEv,"x"
	.linkonce discard
	.align 2
	.globl	_ZNSt12_Vector_baseIiSaIiEE19_M_get_Tp_allocatorEv
	.def	_ZNSt12_Vector_baseIiSaIiEE19_M_get_Tp_allocatorEv;	.scl	2;	.type	32;	.endef
	.seh_proc	_ZNSt12_Vector_baseIiSaIiEE19_M_get_Tp_allocatorEv
_ZNSt12_Vector_baseIiSaIiEE19_M_get_Tp_allocatorEv:
.LFB10988:
	pushq	%rbp
	.seh_pushreg	%rbp
	movq	%rsp, %rbp
	.seh_setframe	%rbp, 0
	.seh_endprologue
	movq	%rcx, 16(%rbp)
	movq	16(%rbp), %rax
	popq	%rbp
	ret
	.seh_endproc
	.section	.text$_ZSt8_DestroyIPiiEvT_S1_RSaIT0_E,"x"
	.linkonce discard
	.globl	_ZSt8_DestroyIPiiEvT_S1_RSaIT0_E
	.def	_ZSt8_DestroyIPiiEvT_S1_RSaIT0_E;	.scl	2;	.type	32;	.endef
	.seh_proc	_ZSt8_DestroyIPiiEvT_S1_RSaIT0_E
_ZSt8_DestroyIPiiEvT_S1_RSaIT0_E:
.LFB10989:
	pushq	%rbp
	.seh_pushreg	%rbp
	movq	%rsp, %rbp
	.seh_setframe	%rbp, 0
	subq	$32, %rsp
	.seh_stackalloc	32
	.seh_endprologue
	movq	%rcx, 16(%rbp)
	movq	%rdx, 24(%rbp)
	movq	%r8, 32(%rbp)
	movq	24(%rbp), %rdx
	movq	16(%rbp), %rax
	movq	%rax, %rcx
	call	_ZSt8_DestroyIPiEvT_S1_
	nop
	addq	$32, %rsp
	popq	%rbp
	ret
	.seh_endproc
	.section	.text$_ZNSaIiEC2Ev,"x"
	.linkonce discard
	.align 2
	.globl	_ZNSaIiEC2Ev
	.def	_ZNSaIiEC2Ev;	.scl	2;	.type	32;	.endef
	.seh_proc	_ZNSaIiEC2Ev
_ZNSaIiEC2Ev:
.LFB10991:
	pushq	%rbp
	.seh_pushreg	%rbp
	movq	%rsp, %rbp
	.seh_setframe	%rbp, 0
	subq	$32, %rsp
	.seh_stackalloc	32
	.seh_endprologue
	movq	%rcx, 16(%rbp)
	movq	16(%rbp), %rax
	movq	%rax, %rcx
	call	_ZNSt15__new_allocatorIiEC2Ev
	nop
	addq	$32, %rsp
	popq	%rbp
	ret
	.seh_endproc
	.section	.text$_ZNSt12_Vector_baseIiSaIiEE17_Vector_impl_dataC2Ev,"x"
	.linkonce discard
	.align 2
	.globl	_ZNSt12_Vector_baseIiSaIiEE17_Vector_impl_dataC2Ev
	.def	_ZNSt12_Vector_baseIiSaIiEE17_Vector_impl_dataC2Ev;	.scl	2;	.type	32;	.endef
	.seh_proc	_ZNSt12_Vector_baseIiSaIiEE17_Vector_impl_dataC2Ev
_ZNSt12_Vector_baseIiSaIiEE17_Vector_impl_dataC2Ev:
.LFB10994:
	pushq	%rbp
	.seh_pushreg	%rbp
	movq	%rsp, %rbp
	.seh_setframe	%rbp, 0
	.seh_endprologue
	movq	%rcx, 16(%rbp)
	movq	16(%rbp), %rax
	movq	$0, (%rax)
	movq	16(%rbp), %rax
	movq	$0, 8(%rax)
	movq	16(%rbp), %rax
	movq	$0, 16(%rax)
	nop
	popq	%rbp
	ret
	.seh_endproc
	.section	.text$_ZNSt15__new_allocatorIiED2Ev,"x"
	.linkonce discard
	.align 2
	.globl	_ZNSt15__new_allocatorIiED2Ev
	.def	_ZNSt15__new_allocatorIiED2Ev;	.scl	2;	.type	32;	.endef
	.seh_proc	_ZNSt15__new_allocatorIiED2Ev
_ZNSt15__new_allocatorIiED2Ev:
.LFB10997:
	pushq	%rbp
	.seh_pushreg	%rbp
	movq	%rsp, %rbp
	.seh_setframe	%rbp, 0
	.seh_endprologue
	movq	%rcx, 16(%rbp)
	nop
	popq	%rbp
	ret
	.seh_endproc
	.section	.text$_ZNSt12_Vector_baseIiSaIiEE13_M_deallocateEPiy,"x"
	.linkonce discard
	.align 2
	.globl	_ZNSt12_Vector_baseIiSaIiEE13_M_deallocateEPiy
	.def	_ZNSt12_Vector_baseIiSaIiEE13_M_deallocateEPiy;	.scl	2;	.type	32;	.endef
	.seh_proc	_ZNSt12_Vector_baseIiSaIiEE13_M_deallocateEPiy
_ZNSt12_Vector_baseIiSaIiEE13_M_deallocateEPiy:
.LFB10999:
	pushq	%rbp
	.seh_pushreg	%rbp
	movq	%rsp, %rbp
	.seh_setframe	%rbp, 0
	subq	$32, %rsp
	.seh_stackalloc	32
	.seh_endprologue
	movq	%rcx, 16(%rbp)
	movq	%rdx, 24(%rbp)
	movq	%r8, 32(%rbp)
	cmpq	$0, 24(%rbp)
	je	.L143
	movq	16(%rbp), %rax
	movq	32(%rbp), %rcx
	movq	24(%rbp), %rdx
	movq	%rcx, %r8
	movq	%rax, %rcx
	call	_ZNSt16allocator_traitsISaIiEE10deallocateERS0_Piy
.L143:
	nop
	addq	$32, %rsp
	popq	%rbp
	ret
	.seh_endproc
	.section	.text$_ZNSaISt13_Rb_tree_nodeISt4pairIKiSt3mapIiiSt4lessIiESaIS0_IS1_iEEEEEEC2Ev,"x"
	.linkonce discard
	.align 2
	.globl	_ZNSaISt13_Rb_tree_nodeISt4pairIKiSt3mapIiiSt4lessIiESaIS0_IS1_iEEEEEEC2Ev
	.def	_ZNSaISt13_Rb_tree_nodeISt4pairIKiSt3mapIiiSt4lessIiESaIS0_IS1_iEEEEEEC2Ev;	.scl	2;	.type	32;	.endef
	.seh_proc	_ZNSaISt13_Rb_tree_nodeISt4pairIKiSt3mapIiiSt4lessIiESaIS0_IS1_iEEEEEEC2Ev
_ZNSaISt13_Rb_tree_nodeISt4pairIKiSt3mapIiiSt4lessIiESaIS0_IS1_iEEEEEEC2Ev:
.LFB11001:
	pushq	%rbp
	.seh_pushreg	%rbp
	movq	%rsp, %rbp
	.seh_setframe	%rbp, 0
	subq	$32, %rsp
	.seh_stackalloc	32
	.seh_endprologue
	movq	%rcx, 16(%rbp)
	movq	16(%rbp), %rax
	movq	%rax, %rcx
	call	_ZNSt15__new_allocatorISt13_Rb_tree_nodeISt4pairIKiSt3mapIiiSt4lessIiESaIS1_IS2_iEEEEEEC2Ev
	nop
	addq	$32, %rsp
	popq	%rbp
	ret
	.seh_endproc
	.section	.text$_ZNSt20_Rb_tree_key_compareISt4lessIiEEC2Ev,"x"
	.linkonce discard
	.align 2
	.globl	_ZNSt20_Rb_tree_key_compareISt4lessIiEEC2Ev
	.def	_ZNSt20_Rb_tree_key_compareISt4lessIiEEC2Ev;	.scl	2;	.type	32;	.endef
	.seh_proc	_ZNSt20_Rb_tree_key_compareISt4lessIiEEC2Ev
_ZNSt20_Rb_tree_key_compareISt4lessIiEEC2Ev:
.LFB11004:
	pushq	%rbp
	.seh_pushreg	%rbp
	movq	%rsp, %rbp
	.seh_setframe	%rbp, 0
	.seh_endprologue
	movq	%rcx, 16(%rbp)
	nop
	popq	%rbp
	ret
	.seh_endproc
	.section	.text$_ZNSt15__new_allocatorISt13_Rb_tree_nodeISt4pairIKiSt3mapIiiSt4lessIiESaIS1_IS2_iEEEEEED2Ev,"x"
	.linkonce discard
	.align 2
	.globl	_ZNSt15__new_allocatorISt13_Rb_tree_nodeISt4pairIKiSt3mapIiiSt4lessIiESaIS1_IS2_iEEEEEED2Ev
	.def	_ZNSt15__new_allocatorISt13_Rb_tree_nodeISt4pairIKiSt3mapIiiSt4lessIiESaIS1_IS2_iEEEEEED2Ev;	.scl	2;	.type	32;	.endef
	.seh_proc	_ZNSt15__new_allocatorISt13_Rb_tree_nodeISt4pairIKiSt3mapIiiSt4lessIiESaIS1_IS2_iEEEEEED2Ev
_ZNSt15__new_allocatorISt13_Rb_tree_nodeISt4pairIKiSt3mapIiiSt4lessIiESaIS1_IS2_iEEEEEED2Ev:
.LFB11007:
	pushq	%rbp
	.seh_pushreg	%rbp
	movq	%rsp, %rbp
	.seh_setframe	%rbp, 0
	.seh_endprologue
	movq	%rcx, 16(%rbp)
	nop
	popq	%rbp
	ret
	.seh_endproc
	.section	.text$_ZNSt8_Rb_treeIiSt4pairIKiSt3mapIiiSt4lessIiESaIS0_IS1_iEEEESt10_Select1stIS8_ES4_SaIS8_EE8_M_eraseEPSt13_Rb_tree_nodeIS8_E,"x"
	.linkonce discard
	.align 2
	.globl	_ZNSt8_Rb_treeIiSt4pairIKiSt3mapIiiSt4lessIiESaIS0_IS1_iEEEESt10_Select1stIS8_ES4_SaIS8_EE8_M_eraseEPSt13_Rb_tree_nodeIS8_E
	.def	_ZNSt8_Rb_treeIiSt4pairIKiSt3mapIiiSt4lessIiESaIS0_IS1_iEEEESt10_Select1stIS8_ES4_SaIS8_EE8_M_eraseEPSt13_Rb_tree_nodeIS8_E;	.scl	2;	.type	32;	.endef
	.seh_proc	_ZNSt8_Rb_treeIiSt4pairIKiSt3mapIiiSt4lessIiESaIS0_IS1_iEEEESt10_Select1stIS8_ES4_SaIS8_EE8_M_eraseEPSt13_Rb_tree_nodeIS8_E
_ZNSt8_Rb_treeIiSt4pairIKiSt3mapIiiSt4lessIiESaIS0_IS1_iEEEESt10_Select1stIS8_ES4_SaIS8_EE8_M_eraseEPSt13_Rb_tree_nodeIS8_E:
.LFB11009:
	pushq	%rbp
	.seh_pushreg	%rbp
	movq	%rsp, %rbp
	.seh_setframe	%rbp, 0
	subq	$48, %rsp
	.seh_stackalloc	48
	.seh_endprologue
	movq	%rcx, 16(%rbp)
	movq	%rdx, 24(%rbp)
	jmp	.L148
.L149:
	movq	24(%rbp), %rax
	movq	%rax, %rcx
	call	_ZNSt8_Rb_treeIiSt4pairIKiSt3mapIiiSt4lessIiESaIS0_IS1_iEEEESt10_Select1stIS8_ES4_SaIS8_EE8_S_rightEPSt18_Rb_tree_node_base
	movq	%rax, %rdx
	movq	16(%rbp), %rax
	movq	%rax, %rcx
	call	_ZNSt8_Rb_treeIiSt4pairIKiSt3mapIiiSt4lessIiESaIS0_IS1_iEEEESt10_Select1stIS8_ES4_SaIS8_EE8_M_eraseEPSt13_Rb_tree_nodeIS8_E
	movq	24(%rbp), %rax
	movq	%rax, %rcx
	call	_ZNSt8_Rb_treeIiSt4pairIKiSt3mapIiiSt4lessIiESaIS0_IS1_iEEEESt10_Select1stIS8_ES4_SaIS8_EE7_S_leftEPSt18_Rb_tree_node_base
	movq	%rax, -8(%rbp)
	movq	24(%rbp), %rdx
	movq	16(%rbp), %rax
	movq	%rax, %rcx
	call	_ZNSt8_Rb_treeIiSt4pairIKiSt3mapIiiSt4lessIiESaIS0_IS1_iEEEESt10_Select1stIS8_ES4_SaIS8_EE12_M_drop_nodeEPSt13_Rb_tree_nodeIS8_E
	movq	-8(%rbp), %rax
	movq	%rax, 24(%rbp)
.L148:
	cmpq	$0, 24(%rbp)
	jne	.L149
	nop
	nop
	addq	$48, %rsp
	popq	%rbp
	ret
	.seh_endproc
	.section	.text$_ZNSt8_Rb_treeIiSt4pairIKiSt3mapIiiSt4lessIiESaIS0_IS1_iEEEESt10_Select1stIS8_ES4_SaIS8_EE8_M_beginEv,"x"
	.linkonce discard
	.align 2
	.globl	_ZNSt8_Rb_treeIiSt4pairIKiSt3mapIiiSt4lessIiESaIS0_IS1_iEEEESt10_Select1stIS8_ES4_SaIS8_EE8_M_beginEv
	.def	_ZNSt8_Rb_treeIiSt4pairIKiSt3mapIiiSt4lessIiESaIS0_IS1_iEEEESt10_Select1stIS8_ES4_SaIS8_EE8_M_beginEv;	.scl	2;	.type	32;	.endef
	.seh_proc	_ZNSt8_Rb_treeIiSt4pairIKiSt3mapIiiSt4lessIiESaIS0_IS1_iEEEESt10_Select1stIS8_ES4_SaIS8_EE8_M_beginEv
_ZNSt8_Rb_treeIiSt4pairIKiSt3mapIiiSt4lessIiESaIS0_IS1_iEEEESt10_Select1stIS8_ES4_SaIS8_EE8_M_beginEv:
.LFB11010:
	pushq	%rbp
	.seh_pushreg	%rbp
	movq	%rsp, %rbp
	.seh_setframe	%rbp, 0
	subq	$32, %rsp
	.seh_stackalloc	32
	.seh_endprologue
	movq	%rcx, 16(%rbp)
	movq	16(%rbp), %rax
	movq	%rax, %rcx
	call	_ZNKSt8_Rb_treeIiSt4pairIKiSt3mapIiiSt4lessIiESaIS0_IS1_iEEEESt10_Select1stIS8_ES4_SaIS8_EE9_M_mbeginEv
	addq	$32, %rsp
	popq	%rbp
	ret
	.seh_endproc
	.section	.text$_ZSt7forwardIRiEOT_RNSt16remove_referenceIS1_E4typeE,"x"
	.linkonce discard
	.globl	_ZSt7forwardIRiEOT_RNSt16remove_referenceIS1_E4typeE
	.def	_ZSt7forwardIRiEOT_RNSt16remove_referenceIS1_E4typeE;	.scl	2;	.type	32;	.endef
	.seh_proc	_ZSt7forwardIRiEOT_RNSt16remove_referenceIS1_E4typeE
_ZSt7forwardIRiEOT_RNSt16remove_referenceIS1_E4typeE:
.LFB11011:
	pushq	%rbp
	.seh_pushreg	%rbp
	movq	%rsp, %rbp
	.seh_setframe	%rbp, 0
	.seh_endprologue
	movq	%rcx, 16(%rbp)
	movq	16(%rbp), %rax
	popq	%rbp
	ret
	.seh_endproc
	.section	.text$_ZNSt16allocator_traitsISaIiEE9constructIiJRiEEEvRS0_PT_DpOT0_,"x"
	.linkonce discard
	.globl	_ZNSt16allocator_traitsISaIiEE9constructIiJRiEEEvRS0_PT_DpOT0_
	.def	_ZNSt16allocator_traitsISaIiEE9constructIiJRiEEEvRS0_PT_DpOT0_;	.scl	2;	.type	32;	.endef
	.seh_proc	_ZNSt16allocator_traitsISaIiEE9constructIiJRiEEEvRS0_PT_DpOT0_
_ZNSt16allocator_traitsISaIiEE9constructIiJRiEEEvRS0_PT_DpOT0_:
.LFB11012:
	pushq	%rbp
	.seh_pushreg	%rbp
	movq	%rsp, %rbp
	.seh_setframe	%rbp, 0
	subq	$32, %rsp
	.seh_stackalloc	32
	.seh_endprologue
	movq	%rcx, 16(%rbp)
	movq	%rdx, 24(%rbp)
	movq	%r8, 32(%rbp)
	movq	32(%rbp), %rax
	movq	%rax, %rcx
	call	_ZSt7forwardIRiEOT_RNSt16remove_referenceIS1_E4typeE
	movq	%rax, %rcx
	movq	24(%rbp), %rdx
	movq	16(%rbp), %rax
	movq	%rcx, %r8
	movq	%rax, %rcx
	call	_ZNSt15__new_allocatorIiE9constructIiJRiEEEvPT_DpOT0_
	nop
	addq	$32, %rsp
	popq	%rbp
	ret
	.seh_endproc
	.section .rdata,"dr"
.LC5:
	.ascii "vector::_M_realloc_insert\0"
	.section	.text$_ZNSt6vectorIiSaIiEE17_M_realloc_insertIJRiEEEvN9__gnu_cxx17__normal_iteratorIPiS1_EEDpOT_,"x"
	.linkonce discard
	.align 2
	.globl	_ZNSt6vectorIiSaIiEE17_M_realloc_insertIJRiEEEvN9__gnu_cxx17__normal_iteratorIPiS1_EEDpOT_
	.def	_ZNSt6vectorIiSaIiEE17_M_realloc_insertIJRiEEEvN9__gnu_cxx17__normal_iteratorIPiS1_EEDpOT_;	.scl	2;	.type	32;	.endef
	.seh_proc	_ZNSt6vectorIiSaIiEE17_M_realloc_insertIJRiEEEvN9__gnu_cxx17__normal_iteratorIPiS1_EEDpOT_
_ZNSt6vectorIiSaIiEE17_M_realloc_insertIJRiEEEvN9__gnu_cxx17__normal_iteratorIPiS1_EEDpOT_:
.LFB11013:
	pushq	%rbp
	.seh_pushreg	%rbp
	pushq	%rbx
	.seh_pushreg	%rbx
	subq	$104, %rsp
	.seh_stackalloc	104
	leaq	96(%rsp), %rbp
	.seh_setframe	%rbp, 96
	.seh_endprologue
	movq	%rcx, 32(%rbp)
	movq	%rdx, 40(%rbp)
	movq	%r8, 48(%rbp)
	movq	32(%rbp), %rax
	leaq	.LC5(%rip), %r8
	movl	$1, %edx
	movq	%rax, %rcx
	call	_ZNKSt6vectorIiSaIiEE12_M_check_lenEyPKc
	movq	%rax, -8(%rbp)
	movq	32(%rbp), %rax
	movq	(%rax), %rax
	movq	%rax, -16(%rbp)
	movq	32(%rbp), %rax
	movq	8(%rax), %rax
	movq	%rax, -24(%rbp)
	movq	32(%rbp), %rax
	movq	%rax, %rcx
	call	_ZNSt6vectorIiSaIiEE5beginEv
	movq	%rax, -56(%rbp)
	leaq	-56(%rbp), %rdx
	leaq	40(%rbp), %rax
	movq	%rax, %rcx
	call	_ZN9__gnu_cxxmiIPiSt6vectorIiSaIiEEEENS_17__normal_iteratorIT_T0_E15difference_typeERKS8_SB_
	movq	%rax, -32(%rbp)
	movq	32(%rbp), %rax
	movq	-8(%rbp), %rdx
	movq	%rax, %rcx
	call	_ZNSt12_Vector_baseIiSaIiEE11_M_allocateEy
	movq	%rax, -40(%rbp)
	movq	-40(%rbp), %rax
	movq	%rax, -48(%rbp)
	movq	48(%rbp), %rax
	movq	%rax, %rcx
	call	_ZSt7forwardIRiEOT_RNSt16remove_referenceIS1_E4typeE
	movq	%rax, %rcx
	movq	-32(%rbp), %rax
	leaq	0(,%rax,4), %rdx
	movq	-40(%rbp), %rax
	addq	%rax, %rdx
	movq	32(%rbp), %rax
	movq	%rcx, %r8
	movq	%rax, %rcx
	call	_ZNSt16allocator_traitsISaIiEE9constructIiJRiEEEvRS0_PT_DpOT0_
	movq	$0, -48(%rbp)
	movq	32(%rbp), %rax
	movq	%rax, %rcx
	call	_ZNSt12_Vector_baseIiSaIiEE19_M_get_Tp_allocatorEv
	movq	%rax, %rbx
	leaq	40(%rbp), %rax
	movq	%rax, %rcx
	call	_ZNK9__gnu_cxx17__normal_iteratorIPiSt6vectorIiSaIiEEE4baseEv
	movq	(%rax), %rdx
	movq	-40(%rbp), %rcx
	movq	-16(%rbp), %rax
	movq	%rbx, %r9
	movq	%rcx, %r8
	movq	%rax, %rcx
	call	_ZNSt6vectorIiSaIiEE11_S_relocateEPiS2_S2_RS0_
	movq	%rax, -48(%rbp)
	addq	$4, -48(%rbp)
	movq	32(%rbp), %rax
	movq	%rax, %rcx
	call	_ZNSt12_Vector_baseIiSaIiEE19_M_get_Tp_allocatorEv
	movq	%rax, %rbx
	leaq	40(%rbp), %rax
	movq	%rax, %rcx
	call	_ZNK9__gnu_cxx17__normal_iteratorIPiSt6vectorIiSaIiEEE4baseEv
	movq	(%rax), %rax
	movq	-48(%rbp), %rcx
	movq	-24(%rbp), %rdx
	movq	%rbx, %r9
	movq	%rcx, %r8
	movq	%rax, %rcx
	call	_ZNSt6vectorIiSaIiEE11_S_relocateEPiS2_S2_RS0_
	movq	%rax, -48(%rbp)
	movq	32(%rbp), %rax
	movq	32(%rbp), %rdx
	movq	16(%rdx), %rdx
	subq	-16(%rbp), %rdx
	sarq	$2, %rdx
	movq	%rdx, %rcx
	movq	-16(%rbp), %rdx
	movq	%rcx, %r8
	movq	%rax, %rcx
	call	_ZNSt12_Vector_baseIiSaIiEE13_M_deallocateEPiy
	movq	32(%rbp), %rax
	movq	-40(%rbp), %rdx
	movq	%rdx, (%rax)
	movq	32(%rbp), %rax
	movq	-48(%rbp), %rdx
	movq	%rdx, 8(%rax)
	movq	-8(%rbp), %rax
	leaq	0(,%rax,4), %rdx
	movq	-40(%rbp), %rax
	addq	%rax, %rdx
	movq	32(%rbp), %rax
	movq	%rdx, 16(%rax)
	nop
	addq	$104, %rsp
	popq	%rbx
	popq	%rbp
	ret
	.seh_endproc
	.section	.text$_ZNSt6vectorIiSaIiEE4backEv,"x"
	.linkonce discard
	.align 2
	.globl	_ZNSt6vectorIiSaIiEE4backEv
	.def	_ZNSt6vectorIiSaIiEE4backEv;	.scl	2;	.type	32;	.endef
	.seh_proc	_ZNSt6vectorIiSaIiEE4backEv
_ZNSt6vectorIiSaIiEE4backEv:
.LFB11017:
	pushq	%rbp
	.seh_pushreg	%rbp
	movq	%rsp, %rbp
	.seh_setframe	%rbp, 0
	subq	$48, %rsp
	.seh_stackalloc	48
	.seh_endprologue
	movq	%rcx, 16(%rbp)
	movq	16(%rbp), %rax
	movq	%rax, %rcx
	call	_ZNSt6vectorIiSaIiEE3endEv
	movq	%rax, -8(%rbp)
	leaq	-8(%rbp), %rax
	movl	$1, %edx
	movq	%rax, %rcx
	call	_ZNK9__gnu_cxx17__normal_iteratorIPiSt6vectorIiSaIiEEEmiEx
	movq	%rax, -16(%rbp)
	leaq	-16(%rbp), %rax
	movq	%rax, %rcx
	call	_ZNK9__gnu_cxx17__normal_iteratorIPiSt6vectorIiSaIiEEEdeEv
	addq	$48, %rsp
	popq	%rbp
	ret
	.seh_endproc
	.text
	.def	_ZN9__gnu_cxx5__ops16__iter_comp_iterIZ4mainEUl4nodeS2_E_EENS0_15_Iter_comp_iterIT_EES5_;	.scl	3;	.type	32;	.endef
	.seh_proc	_ZN9__gnu_cxx5__ops16__iter_comp_iterIZ4mainEUl4nodeS2_E_EENS0_15_Iter_comp_iterIT_EES5_
_ZN9__gnu_cxx5__ops16__iter_comp_iterIZ4mainEUl4nodeS2_E_EENS0_15_Iter_comp_iterIT_EES5_:
.LFB11018:
	pushq	%rbp
	.seh_pushreg	%rbp
	pushq	%rbx
	.seh_pushreg	%rbx
	subq	$56, %rsp
	.seh_stackalloc	56
	leaq	48(%rsp), %rbp
	.seh_setframe	%rbp, 48
	.seh_endprologue
	leaq	32(%rbp), %rcx
	call	_ZSt4moveIRZ4mainEUl4nodeS0_E_EONSt16remove_referenceIT_E4typeEOS4_
	leaq	-1(%rbp), %rax
	movl	%ebx, %edx
	movq	%rax, %rcx
	call	_ZN9__gnu_cxx5__ops15_Iter_comp_iterIZ4mainEUl4nodeS2_E_EC1ES3_
	nop
	addq	$56, %rsp
	popq	%rbx
	popq	%rbp
	ret
	.seh_endproc
	.def	_ZSt6__sortIP4nodeN9__gnu_cxx5__ops15_Iter_comp_iterIZ4mainEUlS0_S0_E_EEEvT_S7_T0_;	.scl	3;	.type	32;	.endef
	.seh_proc	_ZSt6__sortIP4nodeN9__gnu_cxx5__ops15_Iter_comp_iterIZ4mainEUlS0_S0_E_EEEvT_S7_T0_
_ZSt6__sortIP4nodeN9__gnu_cxx5__ops15_Iter_comp_iterIZ4mainEUlS0_S0_E_EEEvT_S7_T0_:
.LFB11019:
	pushq	%rbp
	.seh_pushreg	%rbp
	movq	%rsp, %rbp
	.seh_setframe	%rbp, 0
	subq	$32, %rsp
	.seh_stackalloc	32
	.seh_endprologue
	movq	%rcx, 16(%rbp)
	movq	%rdx, 24(%rbp)
	movq	16(%rbp), %rax
	cmpq	24(%rbp), %rax
	je	.L162
	movq	24(%rbp), %rax
	subq	16(%rbp), %rax
	sarq	$3, %rax
	movq	%rax, %rcx
	call	_ZSt4__lgx
	leaq	(%rax,%rax), %r8
	movzbl	32(%rbp), %ecx
	movq	24(%rbp), %rdx
	movq	16(%rbp), %rax
	movl	%ecx, %r9d
	movq	%rax, %rcx
	call	_ZSt16__introsort_loopIP4nodexN9__gnu_cxx5__ops15_Iter_comp_iterIZ4mainEUlS0_S0_E_EEEvT_S7_T0_T1_
	movzbl	32(%rbp), %ecx
	movq	24(%rbp), %rdx
	movq	16(%rbp), %rax
	movl	%ecx, %r8d
	movq	%rax, %rcx
	call	_ZSt22__final_insertion_sortIP4nodeN9__gnu_cxx5__ops15_Iter_comp_iterIZ4mainEUlS0_S0_E_EEEvT_S7_T0_
.L162:
	nop
	addq	$32, %rsp
	popq	%rbp
	ret
	.seh_endproc
	.section	.text$_ZN9__gnu_cxx17__normal_iteratorIPiSt6vectorIiSaIiEEEC1ERKS1_,"x"
	.linkonce discard
	.align 2
	.globl	_ZN9__gnu_cxx17__normal_iteratorIPiSt6vectorIiSaIiEEEC1ERKS1_
	.def	_ZN9__gnu_cxx17__normal_iteratorIPiSt6vectorIiSaIiEEEC1ERKS1_;	.scl	2;	.type	32;	.endef
	.seh_proc	_ZN9__gnu_cxx17__normal_iteratorIPiSt6vectorIiSaIiEEEC1ERKS1_
_ZN9__gnu_cxx17__normal_iteratorIPiSt6vectorIiSaIiEEEC1ERKS1_:
.LFB11022:
	pushq	%rbp
	.seh_pushreg	%rbp
	movq	%rsp, %rbp
	.seh_setframe	%rbp, 0
	.seh_endprologue
	movq	%rcx, 16(%rbp)
	movq	%rdx, 24(%rbp)
	movq	24(%rbp), %rax
	movq	(%rax), %rdx
	movq	16(%rbp), %rax
	movq	%rdx, (%rax)
	nop
	popq	%rbp
	ret
	.seh_endproc
	.section	.text$_ZNK9__gnu_cxx17__normal_iteratorIPiSt6vectorIiSaIiEEE4baseEv,"x"
	.linkonce discard
	.align 2
	.globl	_ZNK9__gnu_cxx17__normal_iteratorIPiSt6vectorIiSaIiEEE4baseEv
	.def	_ZNK9__gnu_cxx17__normal_iteratorIPiSt6vectorIiSaIiEEE4baseEv;	.scl	2;	.type	32;	.endef
	.seh_proc	_ZNK9__gnu_cxx17__normal_iteratorIPiSt6vectorIiSaIiEEE4baseEv
_ZNK9__gnu_cxx17__normal_iteratorIPiSt6vectorIiSaIiEEE4baseEv:
.LFB11023:
	pushq	%rbp
	.seh_pushreg	%rbp
	movq	%rsp, %rbp
	.seh_setframe	%rbp, 0
	.seh_endprologue
	movq	%rcx, 16(%rbp)
	movq	16(%rbp), %rax
	popq	%rbp
	ret
	.seh_endproc
	.section	.text$_ZNSt3mapIiS_IiiSt4lessIiESaISt4pairIKiiEEES1_SaIS2_IS3_S6_EEE11lower_boundERS3_,"x"
	.linkonce discard
	.align 2
	.globl	_ZNSt3mapIiS_IiiSt4lessIiESaISt4pairIKiiEEES1_SaIS2_IS3_S6_EEE11lower_boundERS3_
	.def	_ZNSt3mapIiS_IiiSt4lessIiESaISt4pairIKiiEEES1_SaIS2_IS3_S6_EEE11lower_boundERS3_;	.scl	2;	.type	32;	.endef
	.seh_proc	_ZNSt3mapIiS_IiiSt4lessIiESaISt4pairIKiiEEES1_SaIS2_IS3_S6_EEE11lower_boundERS3_
_ZNSt3mapIiS_IiiSt4lessIiESaISt4pairIKiiEEES1_SaIS2_IS3_S6_EEE11lower_boundERS3_:
.LFB11024:
	pushq	%rbp
	.seh_pushreg	%rbp
	movq	%rsp, %rbp
	.seh_setframe	%rbp, 0
	subq	$32, %rsp
	.seh_stackalloc	32
	.seh_endprologue
	movq	%rcx, 16(%rbp)
	movq	%rdx, 24(%rbp)
	movq	16(%rbp), %rax
	movq	24(%rbp), %rdx
	movq	%rax, %rcx
	call	_ZNSt8_Rb_treeIiSt4pairIKiSt3mapIiiSt4lessIiESaIS0_IS1_iEEEESt10_Select1stIS8_ES4_SaIS8_EE11lower_boundERS1_
	addq	$32, %rsp
	popq	%rbp
	ret
	.seh_endproc
	.section	.text$_ZNSt3mapIiS_IiiSt4lessIiESaISt4pairIKiiEEES1_SaIS2_IS3_S6_EEE3endEv,"x"
	.linkonce discard
	.align 2
	.globl	_ZNSt3mapIiS_IiiSt4lessIiESaISt4pairIKiiEEES1_SaIS2_IS3_S6_EEE3endEv
	.def	_ZNSt3mapIiS_IiiSt4lessIiESaISt4pairIKiiEEES1_SaIS2_IS3_S6_EEE3endEv;	.scl	2;	.type	32;	.endef
	.seh_proc	_ZNSt3mapIiS_IiiSt4lessIiESaISt4pairIKiiEEES1_SaIS2_IS3_S6_EEE3endEv
_ZNSt3mapIiS_IiiSt4lessIiESaISt4pairIKiiEEES1_SaIS2_IS3_S6_EEE3endEv:
.LFB11025:
	pushq	%rbp
	.seh_pushreg	%rbp
	movq	%rsp, %rbp
	.seh_setframe	%rbp, 0
	subq	$32, %rsp
	.seh_stackalloc	32
	.seh_endprologue
	movq	%rcx, 16(%rbp)
	movq	16(%rbp), %rax
	movq	%rax, %rcx
	call	_ZNSt8_Rb_treeIiSt4pairIKiSt3mapIiiSt4lessIiESaIS0_IS1_iEEEESt10_Select1stIS8_ES4_SaIS8_EE3endEv
	addq	$32, %rsp
	popq	%rbp
	ret
	.seh_endproc
	.section	.text$_ZSteqRKSt17_Rb_tree_iteratorISt4pairIKiSt3mapIiiSt4lessIiESaIS0_IS1_iEEEEESB_,"x"
	.linkonce discard
	.globl	_ZSteqRKSt17_Rb_tree_iteratorISt4pairIKiSt3mapIiiSt4lessIiESaIS0_IS1_iEEEEESB_
	.def	_ZSteqRKSt17_Rb_tree_iteratorISt4pairIKiSt3mapIiiSt4lessIiESaIS0_IS1_iEEEEESB_;	.scl	2;	.type	32;	.endef
	.seh_proc	_ZSteqRKSt17_Rb_tree_iteratorISt4pairIKiSt3mapIiiSt4lessIiESaIS0_IS1_iEEEEESB_
_ZSteqRKSt17_Rb_tree_iteratorISt4pairIKiSt3mapIiiSt4lessIiESaIS0_IS1_iEEEEESB_:
.LFB11026:
	pushq	%rbp
	.seh_pushreg	%rbp
	movq	%rsp, %rbp
	.seh_setframe	%rbp, 0
	.seh_endprologue
	movq	%rcx, 16(%rbp)
	movq	%rdx, 24(%rbp)
	movq	16(%rbp), %rax
	movq	(%rax), %rdx
	movq	24(%rbp), %rax
	movq	(%rax), %rax
	cmpq	%rax, %rdx
	sete	%al
	popq	%rbp
	ret
	.seh_endproc
	.section	.text$_ZNKSt3mapIiS_IiiSt4lessIiESaISt4pairIKiiEEES1_SaIS2_IS3_S6_EEE8key_compEv,"x"
	.linkonce discard
	.align 2
	.globl	_ZNKSt3mapIiS_IiiSt4lessIiESaISt4pairIKiiEEES1_SaIS2_IS3_S6_EEE8key_compEv
	.def	_ZNKSt3mapIiS_IiiSt4lessIiESaISt4pairIKiiEEES1_SaIS2_IS3_S6_EEE8key_compEv;	.scl	2;	.type	32;	.endef
	.seh_proc	_ZNKSt3mapIiS_IiiSt4lessIiESaISt4pairIKiiEEES1_SaIS2_IS3_S6_EEE8key_compEv
_ZNKSt3mapIiS_IiiSt4lessIiESaISt4pairIKiiEEES1_SaIS2_IS3_S6_EEE8key_compEv:
.LFB11027:
	pushq	%rbp
	.seh_pushreg	%rbp
	movq	%rsp, %rbp
	.seh_setframe	%rbp, 0
	subq	$32, %rsp
	.seh_stackalloc	32
	.seh_endprologue
	movq	%rcx, 16(%rbp)
	movq	16(%rbp), %rax
	movq	%rax, %rcx
	call	_ZNKSt8_Rb_treeIiSt4pairIKiSt3mapIiiSt4lessIiESaIS0_IS1_iEEEESt10_Select1stIS8_ES4_SaIS8_EE8key_compEv
	nop
	addq	$32, %rsp
	popq	%rbp
	ret
	.seh_endproc
	.section	.text$_ZNKSt17_Rb_tree_iteratorISt4pairIKiSt3mapIiiSt4lessIiESaIS0_IS1_iEEEEEdeEv,"x"
	.linkonce discard
	.align 2
	.globl	_ZNKSt17_Rb_tree_iteratorISt4pairIKiSt3mapIiiSt4lessIiESaIS0_IS1_iEEEEEdeEv
	.def	_ZNKSt17_Rb_tree_iteratorISt4pairIKiSt3mapIiiSt4lessIiESaIS0_IS1_iEEEEEdeEv;	.scl	2;	.type	32;	.endef
	.seh_proc	_ZNKSt17_Rb_tree_iteratorISt4pairIKiSt3mapIiiSt4lessIiESaIS0_IS1_iEEEEEdeEv
_ZNKSt17_Rb_tree_iteratorISt4pairIKiSt3mapIiiSt4lessIiESaIS0_IS1_iEEEEEdeEv:
.LFB11028:
	pushq	%rbp
	.seh_pushreg	%rbp
	movq	%rsp, %rbp
	.seh_setframe	%rbp, 0
	subq	$32, %rsp
	.seh_stackalloc	32
	.seh_endprologue
	movq	%rcx, 16(%rbp)
	movq	16(%rbp), %rax
	movq	(%rax), %rax
	movq	%rax, %rcx
	call	_ZNSt13_Rb_tree_nodeISt4pairIKiSt3mapIiiSt4lessIiESaIS0_IS1_iEEEEE9_M_valptrEv
	addq	$32, %rsp
	popq	%rbp
	ret
	.seh_endproc
	.section	.text$_ZNKSt4lessIiEclERKiS2_,"x"
	.linkonce discard
	.align 2
	.globl	_ZNKSt4lessIiEclERKiS2_
	.def	_ZNKSt4lessIiEclERKiS2_;	.scl	2;	.type	32;	.endef
	.seh_proc	_ZNKSt4lessIiEclERKiS2_
_ZNKSt4lessIiEclERKiS2_:
.LFB11029:
	pushq	%rbp
	.seh_pushreg	%rbp
	movq	%rsp, %rbp
	.seh_setframe	%rbp, 0
	.seh_endprologue
	movq	%rcx, 16(%rbp)
	movq	%rdx, 24(%rbp)
	movq	%r8, 32(%rbp)
	movq	24(%rbp), %rax
	movl	(%rax), %edx
	movq	32(%rbp), %rax
	movl	(%rax), %eax
	cmpl	%eax, %edx
	setl	%al
	popq	%rbp
	ret
	.seh_endproc
	.section	.text$_ZNSt5tupleIJRKiEEC1ILb1ELb1EEES1_,"x"
	.linkonce discard
	.align 2
	.globl	_ZNSt5tupleIJRKiEEC1ILb1ELb1EEES1_
	.def	_ZNSt5tupleIJRKiEEC1ILb1ELb1EEES1_;	.scl	2;	.type	32;	.endef
	.seh_proc	_ZNSt5tupleIJRKiEEC1ILb1ELb1EEES1_
_ZNSt5tupleIJRKiEEC1ILb1ELb1EEES1_:
.LFB11032:
	pushq	%rbp
	.seh_pushreg	%rbp
	movq	%rsp, %rbp
	.seh_setframe	%rbp, 0
	subq	$32, %rsp
	.seh_stackalloc	32
	.seh_endprologue
	movq	%rcx, 16(%rbp)
	movq	%rdx, 24(%rbp)
	movq	16(%rbp), %rax
	movq	24(%rbp), %rdx
	movq	%rax, %rcx
	call	_ZNSt11_Tuple_implILy0EJRKiEEC2ES1_
	nop
	addq	$32, %rsp
	popq	%rbp
	ret
	.seh_handler	__gxx_personality_seh0, @unwind, @except
	.seh_handlerdata
.LLSDA11032:
	.byte	0xff
	.byte	0xff
	.byte	0x1
	.uleb128 .LLSDACSE11032-.LLSDACSB11032
.LLSDACSB11032:
.LLSDACSE11032:
	.section	.text$_ZNSt5tupleIJRKiEEC1ILb1ELb1EEES1_,"x"
	.linkonce discard
	.seh_endproc
	.section	.text$_ZNSt23_Rb_tree_const_iteratorISt4pairIKiSt3mapIiiSt4lessIiESaIS0_IS1_iEEEEEC1ERKSt17_Rb_tree_iteratorIS8_E,"x"
	.linkonce discard
	.align 2
	.globl	_ZNSt23_Rb_tree_const_iteratorISt4pairIKiSt3mapIiiSt4lessIiESaIS0_IS1_iEEEEEC1ERKSt17_Rb_tree_iteratorIS8_E
	.def	_ZNSt23_Rb_tree_const_iteratorISt4pairIKiSt3mapIiiSt4lessIiESaIS0_IS1_iEEEEEC1ERKSt17_Rb_tree_iteratorIS8_E;	.scl	2;	.type	32;	.endef
	.seh_proc	_ZNSt23_Rb_tree_const_iteratorISt4pairIKiSt3mapIiiSt4lessIiESaIS0_IS1_iEEEEEC1ERKSt17_Rb_tree_iteratorIS8_E
_ZNSt23_Rb_tree_const_iteratorISt4pairIKiSt3mapIiiSt4lessIiESaIS0_IS1_iEEEEEC1ERKSt17_Rb_tree_iteratorIS8_E:
.LFB11035:
	pushq	%rbp
	.seh_pushreg	%rbp
	movq	%rsp, %rbp
	.seh_setframe	%rbp, 0
	.seh_endprologue
	movq	%rcx, 16(%rbp)
	movq	%rdx, 24(%rbp)
	movq	24(%rbp), %rax
	movq	(%rax), %rdx
	movq	16(%rbp), %rax
	movq	%rdx, (%rax)
	nop
	popq	%rbp
	ret
	.seh_endproc
	.section	.text$_ZNSt8_Rb_treeIiSt4pairIKiSt3mapIiiSt4lessIiESaIS0_IS1_iEEEESt10_Select1stIS8_ES4_SaIS8_EE22_M_emplace_hint_uniqueIJRKSt21piecewise_construct_tSt5tupleIJRS1_EESH_IJEEEEESt17_Rb_tree_iteratorIS8_ESt23_Rb_tree_const_iteratorIS8_EDpOT_,"x"
	.linkonce discard
	.align 2
	.globl	_ZNSt8_Rb_treeIiSt4pairIKiSt3mapIiiSt4lessIiESaIS0_IS1_iEEEESt10_Select1stIS8_ES4_SaIS8_EE22_M_emplace_hint_uniqueIJRKSt21piecewise_construct_tSt5tupleIJRS1_EESH_IJEEEEESt17_Rb_tree_iteratorIS8_ESt23_Rb_tree_const_iteratorIS8_EDpOT_
	.def	_ZNSt8_Rb_treeIiSt4pairIKiSt3mapIiiSt4lessIiESaIS0_IS1_iEEEESt10_Select1stIS8_ES4_SaIS8_EE22_M_emplace_hint_uniqueIJRKSt21piecewise_construct_tSt5tupleIJRS1_EESH_IJEEEEESt17_Rb_tree_iteratorIS8_ESt23_Rb_tree_const_iteratorIS8_EDpOT_;	.scl	2;	.type	32;	.endef
	.seh_proc	_ZNSt8_Rb_treeIiSt4pairIKiSt3mapIiiSt4lessIiESaIS0_IS1_iEEEESt10_Select1stIS8_ES4_SaIS8_EE22_M_emplace_hint_uniqueIJRKSt21piecewise_construct_tSt5tupleIJRS1_EESH_IJEEEEESt17_Rb_tree_iteratorIS8_ESt23_Rb_tree_const_iteratorIS8_EDpOT_
_ZNSt8_Rb_treeIiSt4pairIKiSt3mapIiiSt4lessIiESaIS0_IS1_iEEEESt10_Select1stIS8_ES4_SaIS8_EE22_M_emplace_hint_uniqueIJRKSt21piecewise_construct_tSt5tupleIJRS1_EESH_IJEEEEESt17_Rb_tree_iteratorIS8_ESt23_Rb_tree_const_iteratorIS8_EDpOT_:
.LFB11036:
	pushq	%rbp
	.seh_pushreg	%rbp
	pushq	%rsi
	.seh_pushreg	%rsi
	pushq	%rbx
	.seh_pushreg	%rbx
	subq	$112, %rsp
	.seh_stackalloc	112
	leaq	112(%rsp), %rbp
	.seh_setframe	%rbp, 112
	.seh_endprologue
	movq	%rcx, 32(%rbp)
	movq	%rdx, 40(%rbp)
	movq	%r8, 48(%rbp)
	movq	%r9, 56(%rbp)
	movq	64(%rbp), %rax
	movq	%rax, %rcx
	call	_ZSt7forwardISt5tupleIJEEEOT_RNSt16remove_referenceIS2_E4typeE
	movq	%rax, %rbx
	movq	56(%rbp), %rax
	movq	%rax, %rcx
	call	_ZSt7forwardISt5tupleIJRKiEEEOT_RNSt16remove_referenceIS4_E4typeE
	movq	%rax, %rsi
	movq	48(%rbp), %rax
	movq	%rax, %rcx
	call	_ZSt7forwardIRKSt21piecewise_construct_tEOT_RNSt16remove_referenceIS3_E4typeE
	movq	%rax, %rcx
	movq	32(%rbp), %rdx
	leaq	-32(%rbp), %rax
	movq	%rbx, 32(%rsp)
	movq	%rsi, %r9
	movq	%rcx, %r8
	movq	%rax, %rcx
.LEHB0:
	call	_ZNSt8_Rb_treeIiSt4pairIKiSt3mapIiiSt4lessIiESaIS0_IS1_iEEEESt10_Select1stIS8_ES4_SaIS8_EE10_Auto_nodeC1IJRKSt21piecewise_construct_tSt5tupleIJRS1_EESI_IJEEEEERSC_DpOT_
.LEHE0:
	leaq	-32(%rbp), %rax
	movq	%rax, %rcx
.LEHB1:
	call	_ZNKSt8_Rb_treeIiSt4pairIKiSt3mapIiiSt4lessIiESaIS0_IS1_iEEEESt10_Select1stIS8_ES4_SaIS8_EE10_Auto_node6_M_keyEv
	movq	%rax, %rcx
	leaq	-48(%rbp), %rax
	movq	40(%rbp), %r8
	movq	32(%rbp), %rdx
	movq	%rcx, %r9
	movq	%rax, %rcx
	call	_ZNSt8_Rb_treeIiSt4pairIKiSt3mapIiiSt4lessIiESaIS0_IS1_iEEEESt10_Select1stIS8_ES4_SaIS8_EE29_M_get_insert_hint_unique_posESt23_Rb_tree_const_iteratorIS8_ERS1_
	movq	-40(%rbp), %rax
	testq	%rax, %rax
	je	.L181
	movq	-48(%rbp), %rax
	movq	-40(%rbp), %rdx
	movq	%rax, -64(%rbp)
	movq	%rdx, -56(%rbp)
	leaq	-64(%rbp), %rdx
	leaq	-32(%rbp), %rax
	movq	%rax, %rcx
	call	_ZNSt8_Rb_treeIiSt4pairIKiSt3mapIiiSt4lessIiESaIS0_IS1_iEEEESt10_Select1stIS8_ES4_SaIS8_EE10_Auto_node9_M_insertES0_IPSt18_Rb_tree_node_baseSF_E
.LEHE1:
	movq	%rax, %rbx
	jmp	.L182
.L181:
	movq	-48(%rbp), %rdx
	leaq	-8(%rbp), %rax
	movq	%rax, %rcx
	call	_ZNSt17_Rb_tree_iteratorISt4pairIKiSt3mapIiiSt4lessIiESaIS0_IS1_iEEEEEC1EPSt18_Rb_tree_node_base
	movq	-8(%rbp), %rbx
.L182:
	leaq	-32(%rbp), %rax
	movq	%rax, %rcx
	call	_ZNSt8_Rb_treeIiSt4pairIKiSt3mapIiiSt4lessIiESaIS0_IS1_iEEEESt10_Select1stIS8_ES4_SaIS8_EE10_Auto_nodeD1Ev
	movq	%rbx, %rax
	jmp	.L186
.L185:
	movq	%rax, %rbx
	leaq	-32(%rbp), %rax
	movq	%rax, %rcx
	call	_ZNSt8_Rb_treeIiSt4pairIKiSt3mapIiiSt4lessIiESaIS0_IS1_iEEEESt10_Select1stIS8_ES4_SaIS8_EE10_Auto_nodeD1Ev
	movq	%rbx, %rax
	movq	%rax, %rcx
.LEHB2:
	call	_Unwind_Resume
.LEHE2:
.L186:
	addq	$112, %rsp
	popq	%rbx
	popq	%rsi
	popq	%rbp
	ret
	.seh_handler	__gxx_personality_seh0, @unwind, @except
	.seh_handlerdata
.LLSDA11036:
	.byte	0xff
	.byte	0xff
	.byte	0x1
	.uleb128 .LLSDACSE11036-.LLSDACSB11036
.LLSDACSB11036:
	.uleb128 .LEHB0-.LFB11036
	.uleb128 .LEHE0-.LEHB0
	.uleb128 0
	.uleb128 0
	.uleb128 .LEHB1-.LFB11036
	.uleb128 .LEHE1-.LEHB1
	.uleb128 .L185-.LFB11036
	.uleb128 0
	.uleb128 .LEHB2-.LFB11036
	.uleb128 .LEHE2-.LEHB2
	.uleb128 0
	.uleb128 0
.LLSDACSE11036:
	.section	.text$_ZNSt8_Rb_treeIiSt4pairIKiSt3mapIiiSt4lessIiESaIS0_IS1_iEEEESt10_Select1stIS8_ES4_SaIS8_EE22_M_emplace_hint_uniqueIJRKSt21piecewise_construct_tSt5tupleIJRS1_EESH_IJEEEEESt17_Rb_tree_iteratorIS8_ESt23_Rb_tree_const_iteratorIS8_EDpOT_,"x"
	.linkonce discard
	.seh_endproc
	.section	.text$_ZNSt3mapIiiSt4lessIiESaISt4pairIKiiEEE11lower_boundERS3_,"x"
	.linkonce discard
	.align 2
	.globl	_ZNSt3mapIiiSt4lessIiESaISt4pairIKiiEEE11lower_boundERS3_
	.def	_ZNSt3mapIiiSt4lessIiESaISt4pairIKiiEEE11lower_boundERS3_;	.scl	2;	.type	32;	.endef
	.seh_proc	_ZNSt3mapIiiSt4lessIiESaISt4pairIKiiEEE11lower_boundERS3_
_ZNSt3mapIiiSt4lessIiESaISt4pairIKiiEEE11lower_boundERS3_:
.LFB11041:
	pushq	%rbp
	.seh_pushreg	%rbp
	movq	%rsp, %rbp
	.seh_setframe	%rbp, 0
	subq	$32, %rsp
	.seh_stackalloc	32
	.seh_endprologue
	movq	%rcx, 16(%rbp)
	movq	%rdx, 24(%rbp)
	movq	16(%rbp), %rax
	movq	24(%rbp), %rdx
	movq	%rax, %rcx
	call	_ZNSt8_Rb_treeIiSt4pairIKiiESt10_Select1stIS2_ESt4lessIiESaIS2_EE11lower_boundERS1_
	addq	$32, %rsp
	popq	%rbp
	ret
	.seh_endproc
	.section	.text$_ZNSt3mapIiiSt4lessIiESaISt4pairIKiiEEE3endEv,"x"
	.linkonce discard
	.align 2
	.globl	_ZNSt3mapIiiSt4lessIiESaISt4pairIKiiEEE3endEv
	.def	_ZNSt3mapIiiSt4lessIiESaISt4pairIKiiEEE3endEv;	.scl	2;	.type	32;	.endef
	.seh_proc	_ZNSt3mapIiiSt4lessIiESaISt4pairIKiiEEE3endEv
_ZNSt3mapIiiSt4lessIiESaISt4pairIKiiEEE3endEv:
.LFB11042:
	pushq	%rbp
	.seh_pushreg	%rbp
	movq	%rsp, %rbp
	.seh_setframe	%rbp, 0
	subq	$32, %rsp
	.seh_stackalloc	32
	.seh_endprologue
	movq	%rcx, 16(%rbp)
	movq	16(%rbp), %rax
	movq	%rax, %rcx
	call	_ZNSt8_Rb_treeIiSt4pairIKiiESt10_Select1stIS2_ESt4lessIiESaIS2_EE3endEv
	addq	$32, %rsp
	popq	%rbp
	ret
	.seh_endproc
	.section	.text$_ZSteqRKSt17_Rb_tree_iteratorISt4pairIKiiEES5_,"x"
	.linkonce discard
	.globl	_ZSteqRKSt17_Rb_tree_iteratorISt4pairIKiiEES5_
	.def	_ZSteqRKSt17_Rb_tree_iteratorISt4pairIKiiEES5_;	.scl	2;	.type	32;	.endef
	.seh_proc	_ZSteqRKSt17_Rb_tree_iteratorISt4pairIKiiEES5_
_ZSteqRKSt17_Rb_tree_iteratorISt4pairIKiiEES5_:
.LFB11043:
	pushq	%rbp
	.seh_pushreg	%rbp
	movq	%rsp, %rbp
	.seh_setframe	%rbp, 0
	.seh_endprologue
	movq	%rcx, 16(%rbp)
	movq	%rdx, 24(%rbp)
	movq	16(%rbp), %rax
	movq	(%rax), %rdx
	movq	24(%rbp), %rax
	movq	(%rax), %rax
	cmpq	%rax, %rdx
	sete	%al
	popq	%rbp
	ret
	.seh_endproc
	.section	.text$_ZNKSt3mapIiiSt4lessIiESaISt4pairIKiiEEE8key_compEv,"x"
	.linkonce discard
	.align 2
	.globl	_ZNKSt3mapIiiSt4lessIiESaISt4pairIKiiEEE8key_compEv
	.def	_ZNKSt3mapIiiSt4lessIiESaISt4pairIKiiEEE8key_compEv;	.scl	2;	.type	32;	.endef
	.seh_proc	_ZNKSt3mapIiiSt4lessIiESaISt4pairIKiiEEE8key_compEv
_ZNKSt3mapIiiSt4lessIiESaISt4pairIKiiEEE8key_compEv:
.LFB11044:
	pushq	%rbp
	.seh_pushreg	%rbp
	movq	%rsp, %rbp
	.seh_setframe	%rbp, 0
	subq	$32, %rsp
	.seh_stackalloc	32
	.seh_endprologue
	movq	%rcx, 16(%rbp)
	movq	16(%rbp), %rax
	movq	%rax, %rcx
	call	_ZNKSt8_Rb_treeIiSt4pairIKiiESt10_Select1stIS2_ESt4lessIiESaIS2_EE8key_compEv
	nop
	addq	$32, %rsp
	popq	%rbp
	ret
	.seh_endproc
	.section	.text$_ZNKSt17_Rb_tree_iteratorISt4pairIKiiEEdeEv,"x"
	.linkonce discard
	.align 2
	.globl	_ZNKSt17_Rb_tree_iteratorISt4pairIKiiEEdeEv
	.def	_ZNKSt17_Rb_tree_iteratorISt4pairIKiiEEdeEv;	.scl	2;	.type	32;	.endef
	.seh_proc	_ZNKSt17_Rb_tree_iteratorISt4pairIKiiEEdeEv
_ZNKSt17_Rb_tree_iteratorISt4pairIKiiEEdeEv:
.LFB11045:
	pushq	%rbp
	.seh_pushreg	%rbp
	movq	%rsp, %rbp
	.seh_setframe	%rbp, 0
	subq	$32, %rsp
	.seh_stackalloc	32
	.seh_endprologue
	movq	%rcx, 16(%rbp)
	movq	16(%rbp), %rax
	movq	(%rax), %rax
	movq	%rax, %rcx
	call	_ZNSt13_Rb_tree_nodeISt4pairIKiiEE9_M_valptrEv
	addq	$32, %rsp
	popq	%rbp
	ret
	.seh_endproc
	.section	.text$_ZNSt23_Rb_tree_const_iteratorISt4pairIKiiEEC1ERKSt17_Rb_tree_iteratorIS2_E,"x"
	.linkonce discard
	.align 2
	.globl	_ZNSt23_Rb_tree_const_iteratorISt4pairIKiiEEC1ERKSt17_Rb_tree_iteratorIS2_E
	.def	_ZNSt23_Rb_tree_const_iteratorISt4pairIKiiEEC1ERKSt17_Rb_tree_iteratorIS2_E;	.scl	2;	.type	32;	.endef
	.seh_proc	_ZNSt23_Rb_tree_const_iteratorISt4pairIKiiEEC1ERKSt17_Rb_tree_iteratorIS2_E
_ZNSt23_Rb_tree_const_iteratorISt4pairIKiiEEC1ERKSt17_Rb_tree_iteratorIS2_E:
.LFB11048:
	pushq	%rbp
	.seh_pushreg	%rbp
	movq	%rsp, %rbp
	.seh_setframe	%rbp, 0
	.seh_endprologue
	movq	%rcx, 16(%rbp)
	movq	%rdx, 24(%rbp)
	movq	24(%rbp), %rax
	movq	(%rax), %rdx
	movq	16(%rbp), %rax
	movq	%rdx, (%rax)
	nop
	popq	%rbp
	ret
	.seh_endproc
	.section	.text$_ZNSt8_Rb_treeIiSt4pairIKiiESt10_Select1stIS2_ESt4lessIiESaIS2_EE22_M_emplace_hint_uniqueIJRKSt21piecewise_construct_tSt5tupleIJRS1_EESD_IJEEEEESt17_Rb_tree_iteratorIS2_ESt23_Rb_tree_const_iteratorIS2_EDpOT_,"x"
	.linkonce discard
	.align 2
	.globl	_ZNSt8_Rb_treeIiSt4pairIKiiESt10_Select1stIS2_ESt4lessIiESaIS2_EE22_M_emplace_hint_uniqueIJRKSt21piecewise_construct_tSt5tupleIJRS1_EESD_IJEEEEESt17_Rb_tree_iteratorIS2_ESt23_Rb_tree_const_iteratorIS2_EDpOT_
	.def	_ZNSt8_Rb_treeIiSt4pairIKiiESt10_Select1stIS2_ESt4lessIiESaIS2_EE22_M_emplace_hint_uniqueIJRKSt21piecewise_construct_tSt5tupleIJRS1_EESD_IJEEEEESt17_Rb_tree_iteratorIS2_ESt23_Rb_tree_const_iteratorIS2_EDpOT_;	.scl	2;	.type	32;	.endef
	.seh_proc	_ZNSt8_Rb_treeIiSt4pairIKiiESt10_Select1stIS2_ESt4lessIiESaIS2_EE22_M_emplace_hint_uniqueIJRKSt21piecewise_construct_tSt5tupleIJRS1_EESD_IJEEEEESt17_Rb_tree_iteratorIS2_ESt23_Rb_tree_const_iteratorIS2_EDpOT_
_ZNSt8_Rb_treeIiSt4pairIKiiESt10_Select1stIS2_ESt4lessIiESaIS2_EE22_M_emplace_hint_uniqueIJRKSt21piecewise_construct_tSt5tupleIJRS1_EESD_IJEEEEESt17_Rb_tree_iteratorIS2_ESt23_Rb_tree_const_iteratorIS2_EDpOT_:
.LFB11049:
	pushq	%rbp
	.seh_pushreg	%rbp
	pushq	%rsi
	.seh_pushreg	%rsi
	pushq	%rbx
	.seh_pushreg	%rbx
	subq	$112, %rsp
	.seh_stackalloc	112
	leaq	112(%rsp), %rbp
	.seh_setframe	%rbp, 112
	.seh_endprologue
	movq	%rcx, 32(%rbp)
	movq	%rdx, 40(%rbp)
	movq	%r8, 48(%rbp)
	movq	%r9, 56(%rbp)
	movq	64(%rbp), %rax
	movq	%rax, %rcx
	call	_ZSt7forwardISt5tupleIJEEEOT_RNSt16remove_referenceIS2_E4typeE
	movq	%rax, %rbx
	movq	56(%rbp), %rax
	movq	%rax, %rcx
	call	_ZSt7forwardISt5tupleIJRKiEEEOT_RNSt16remove_referenceIS4_E4typeE
	movq	%rax, %rsi
	movq	48(%rbp), %rax
	movq	%rax, %rcx
	call	_ZSt7forwardIRKSt21piecewise_construct_tEOT_RNSt16remove_referenceIS3_E4typeE
	movq	%rax, %rcx
	movq	32(%rbp), %rdx
	leaq	-32(%rbp), %rax
	movq	%rbx, 32(%rsp)
	movq	%rsi, %r9
	movq	%rcx, %r8
	movq	%rax, %rcx
.LEHB3:
	call	_ZNSt8_Rb_treeIiSt4pairIKiiESt10_Select1stIS2_ESt4lessIiESaIS2_EE10_Auto_nodeC1IJRKSt21piecewise_construct_tSt5tupleIJRS1_EESE_IJEEEEERS8_DpOT_
.LEHE3:
	leaq	-32(%rbp), %rax
	movq	%rax, %rcx
.LEHB4:
	call	_ZNKSt8_Rb_treeIiSt4pairIKiiESt10_Select1stIS2_ESt4lessIiESaIS2_EE10_Auto_node6_M_keyEv
	movq	%rax, %rcx
	leaq	-48(%rbp), %rax
	movq	40(%rbp), %r8
	movq	32(%rbp), %rdx
	movq	%rcx, %r9
	movq	%rax, %rcx
	call	_ZNSt8_Rb_treeIiSt4pairIKiiESt10_Select1stIS2_ESt4lessIiESaIS2_EE29_M_get_insert_hint_unique_posESt23_Rb_tree_const_iteratorIS2_ERS1_
	movq	-40(%rbp), %rax
	testq	%rax, %rax
	je	.L199
	movq	-48(%rbp), %rax
	movq	-40(%rbp), %rdx
	movq	%rax, -64(%rbp)
	movq	%rdx, -56(%rbp)
	leaq	-64(%rbp), %rdx
	leaq	-32(%rbp), %rax
	movq	%rax, %rcx
	call	_ZNSt8_Rb_treeIiSt4pairIKiiESt10_Select1stIS2_ESt4lessIiESaIS2_EE10_Auto_node9_M_insertES0_IPSt18_Rb_tree_node_baseSB_E
.LEHE4:
	movq	%rax, %rbx
	jmp	.L200
.L199:
	movq	-48(%rbp), %rdx
	leaq	-8(%rbp), %rax
	movq	%rax, %rcx
	call	_ZNSt17_Rb_tree_iteratorISt4pairIKiiEEC1EPSt18_Rb_tree_node_base
	movq	-8(%rbp), %rbx
.L200:
	leaq	-32(%rbp), %rax
	movq	%rax, %rcx
	call	_ZNSt8_Rb_treeIiSt4pairIKiiESt10_Select1stIS2_ESt4lessIiESaIS2_EE10_Auto_nodeD1Ev
	movq	%rbx, %rax
	jmp	.L204
.L203:
	movq	%rax, %rbx
	leaq	-32(%rbp), %rax
	movq	%rax, %rcx
	call	_ZNSt8_Rb_treeIiSt4pairIKiiESt10_Select1stIS2_ESt4lessIiESaIS2_EE10_Auto_nodeD1Ev
	movq	%rbx, %rax
	movq	%rax, %rcx
.LEHB5:
	call	_Unwind_Resume
.LEHE5:
.L204:
	addq	$112, %rsp
	popq	%rbx
	popq	%rsi
	popq	%rbp
	ret
	.seh_handler	__gxx_personality_seh0, @unwind, @except
	.seh_handlerdata
.LLSDA11049:
	.byte	0xff
	.byte	0xff
	.byte	0x1
	.uleb128 .LLSDACSE11049-.LLSDACSB11049
.LLSDACSB11049:
	.uleb128 .LEHB3-.LFB11049
	.uleb128 .LEHE3-.LEHB3
	.uleb128 0
	.uleb128 0
	.uleb128 .LEHB4-.LFB11049
	.uleb128 .LEHE4-.LEHB4
	.uleb128 .L203-.LFB11049
	.uleb128 0
	.uleb128 .LEHB5-.LFB11049
	.uleb128 .LEHE5-.LEHB5
	.uleb128 0
	.uleb128 0
.LLSDACSE11049:
	.section	.text$_ZNSt8_Rb_treeIiSt4pairIKiiESt10_Select1stIS2_ESt4lessIiESaIS2_EE22_M_emplace_hint_uniqueIJRKSt21piecewise_construct_tSt5tupleIJRS1_EESD_IJEEEEESt17_Rb_tree_iteratorIS2_ESt23_Rb_tree_const_iteratorIS2_EDpOT_,"x"
	.linkonce discard
	.seh_endproc
	.section	.text$_ZSt8_DestroyIPiEvT_S1_,"x"
	.linkonce discard
	.globl	_ZSt8_DestroyIPiEvT_S1_
	.def	_ZSt8_DestroyIPiEvT_S1_;	.scl	2;	.type	32;	.endef
	.seh_proc	_ZSt8_DestroyIPiEvT_S1_
_ZSt8_DestroyIPiEvT_S1_:
.LFB11202:
	pushq	%rbp
	.seh_pushreg	%rbp
	movq	%rsp, %rbp
	.seh_setframe	%rbp, 0
	subq	$32, %rsp
	.seh_stackalloc	32
	.seh_endprologue
	movq	%rcx, 16(%rbp)
	movq	%rdx, 24(%rbp)
	movq	24(%rbp), %rdx
	movq	16(%rbp), %rax
	movq	%rax, %rcx
	call	_ZNSt12_Destroy_auxILb1EE9__destroyIPiEEvT_S3_
	nop
	addq	$32, %rsp
	popq	%rbp
	ret
	.seh_endproc
	.section	.text$_ZNSt15__new_allocatorIiEC2Ev,"x"
	.linkonce discard
	.align 2
	.globl	_ZNSt15__new_allocatorIiEC2Ev
	.def	_ZNSt15__new_allocatorIiEC2Ev;	.scl	2;	.type	32;	.endef
	.seh_proc	_ZNSt15__new_allocatorIiEC2Ev
_ZNSt15__new_allocatorIiEC2Ev:
.LFB11204:
	pushq	%rbp
	.seh_pushreg	%rbp
	movq	%rsp, %rbp
	.seh_setframe	%rbp, 0
	.seh_endprologue
	movq	%rcx, 16(%rbp)
	nop
	popq	%rbp
	ret
	.seh_endproc
	.section	.text$_ZNSt16allocator_traitsISaIiEE10deallocateERS0_Piy,"x"
	.linkonce discard
	.globl	_ZNSt16allocator_traitsISaIiEE10deallocateERS0_Piy
	.def	_ZNSt16allocator_traitsISaIiEE10deallocateERS0_Piy;	.scl	2;	.type	32;	.endef
	.seh_proc	_ZNSt16allocator_traitsISaIiEE10deallocateERS0_Piy
_ZNSt16allocator_traitsISaIiEE10deallocateERS0_Piy:
.LFB11206:
	pushq	%rbp
	.seh_pushreg	%rbp
	movq	%rsp, %rbp
	.seh_setframe	%rbp, 0
	subq	$32, %rsp
	.seh_stackalloc	32
	.seh_endprologue
	movq	%rcx, 16(%rbp)
	movq	%rdx, 24(%rbp)
	movq	%r8, 32(%rbp)
	movq	32(%rbp), %rcx
	movq	24(%rbp), %rdx
	movq	16(%rbp), %rax
	movq	%rcx, %r8
	movq	%rax, %rcx
	call	_ZNSt15__new_allocatorIiE10deallocateEPiy
	nop
	addq	$32, %rsp
	popq	%rbp
	ret
	.seh_endproc
	.section	.text$_ZNSt15__new_allocatorISt13_Rb_tree_nodeISt4pairIKiSt3mapIiiSt4lessIiESaIS1_IS2_iEEEEEEC2Ev,"x"
	.linkonce discard
	.align 2
	.globl	_ZNSt15__new_allocatorISt13_Rb_tree_nodeISt4pairIKiSt3mapIiiSt4lessIiESaIS1_IS2_iEEEEEEC2Ev
	.def	_ZNSt15__new_allocatorISt13_Rb_tree_nodeISt4pairIKiSt3mapIiiSt4lessIiESaIS1_IS2_iEEEEEEC2Ev;	.scl	2;	.type	32;	.endef
	.seh_proc	_ZNSt15__new_allocatorISt13_Rb_tree_nodeISt4pairIKiSt3mapIiiSt4lessIiESaIS1_IS2_iEEEEEEC2Ev
_ZNSt15__new_allocatorISt13_Rb_tree_nodeISt4pairIKiSt3mapIiiSt4lessIiESaIS1_IS2_iEEEEEEC2Ev:
.LFB11208:
	pushq	%rbp
	.seh_pushreg	%rbp
	movq	%rsp, %rbp
	.seh_setframe	%rbp, 0
	.seh_endprologue
	movq	%rcx, 16(%rbp)
	nop
	popq	%rbp
	ret
	.seh_endproc
	.section	.text$_ZNSt8_Rb_treeIiSt4pairIKiSt3mapIiiSt4lessIiESaIS0_IS1_iEEEESt10_Select1stIS8_ES4_SaIS8_EE8_S_rightEPSt18_Rb_tree_node_base,"x"
	.linkonce discard
	.globl	_ZNSt8_Rb_treeIiSt4pairIKiSt3mapIiiSt4lessIiESaIS0_IS1_iEEEESt10_Select1stIS8_ES4_SaIS8_EE8_S_rightEPSt18_Rb_tree_node_base
	.def	_ZNSt8_Rb_treeIiSt4pairIKiSt3mapIiiSt4lessIiESaIS0_IS1_iEEEESt10_Select1stIS8_ES4_SaIS8_EE8_S_rightEPSt18_Rb_tree_node_base;	.scl	2;	.type	32;	.endef
	.seh_proc	_ZNSt8_Rb_treeIiSt4pairIKiSt3mapIiiSt4lessIiESaIS0_IS1_iEEEESt10_Select1stIS8_ES4_SaIS8_EE8_S_rightEPSt18_Rb_tree_node_base
_ZNSt8_Rb_treeIiSt4pairIKiSt3mapIiiSt4lessIiESaIS0_IS1_iEEEESt10_Select1stIS8_ES4_SaIS8_EE8_S_rightEPSt18_Rb_tree_node_base:
.LFB11210:
	pushq	%rbp
	.seh_pushreg	%rbp
	movq	%rsp, %rbp
	.seh_setframe	%rbp, 0
	.seh_endprologue
	movq	%rcx, 16(%rbp)
	movq	16(%rbp), %rax
	movq	24(%rax), %rax
	popq	%rbp
	ret
	.seh_endproc
	.section	.text$_ZNSt8_Rb_treeIiSt4pairIKiSt3mapIiiSt4lessIiESaIS0_IS1_iEEEESt10_Select1stIS8_ES4_SaIS8_EE7_S_leftEPSt18_Rb_tree_node_base,"x"
	.linkonce discard
	.globl	_ZNSt8_Rb_treeIiSt4pairIKiSt3mapIiiSt4lessIiESaIS0_IS1_iEEEESt10_Select1stIS8_ES4_SaIS8_EE7_S_leftEPSt18_Rb_tree_node_base
	.def	_ZNSt8_Rb_treeIiSt4pairIKiSt3mapIiiSt4lessIiESaIS0_IS1_iEEEESt10_Select1stIS8_ES4_SaIS8_EE7_S_leftEPSt18_Rb_tree_node_base;	.scl	2;	.type	32;	.endef
	.seh_proc	_ZNSt8_Rb_treeIiSt4pairIKiSt3mapIiiSt4lessIiESaIS0_IS1_iEEEESt10_Select1stIS8_ES4_SaIS8_EE7_S_leftEPSt18_Rb_tree_node_base
_ZNSt8_Rb_treeIiSt4pairIKiSt3mapIiiSt4lessIiESaIS0_IS1_iEEEESt10_Select1stIS8_ES4_SaIS8_EE7_S_leftEPSt18_Rb_tree_node_base:
.LFB11211:
	pushq	%rbp
	.seh_pushreg	%rbp
	movq	%rsp, %rbp
	.seh_setframe	%rbp, 0
	.seh_endprologue
	movq	%rcx, 16(%rbp)
	movq	16(%rbp), %rax
	movq	16(%rax), %rax
	popq	%rbp
	ret
	.seh_endproc
	.section	.text$_ZNSt8_Rb_treeIiSt4pairIKiSt3mapIiiSt4lessIiESaIS0_IS1_iEEEESt10_Select1stIS8_ES4_SaIS8_EE12_M_drop_nodeEPSt13_Rb_tree_nodeIS8_E,"x"
	.linkonce discard
	.align 2
	.globl	_ZNSt8_Rb_treeIiSt4pairIKiSt3mapIiiSt4lessIiESaIS0_IS1_iEEEESt10_Select1stIS8_ES4_SaIS8_EE12_M_drop_nodeEPSt13_Rb_tree_nodeIS8_E
	.def	_ZNSt8_Rb_treeIiSt4pairIKiSt3mapIiiSt4lessIiESaIS0_IS1_iEEEESt10_Select1stIS8_ES4_SaIS8_EE12_M_drop_nodeEPSt13_Rb_tree_nodeIS8_E;	.scl	2;	.type	32;	.endef
	.seh_proc	_ZNSt8_Rb_treeIiSt4pairIKiSt3mapIiiSt4lessIiESaIS0_IS1_iEEEESt10_Select1stIS8_ES4_SaIS8_EE12_M_drop_nodeEPSt13_Rb_tree_nodeIS8_E
_ZNSt8_Rb_treeIiSt4pairIKiSt3mapIiiSt4lessIiESaIS0_IS1_iEEEESt10_Select1stIS8_ES4_SaIS8_EE12_M_drop_nodeEPSt13_Rb_tree_nodeIS8_E:
.LFB11212:
	pushq	%rbp
	.seh_pushreg	%rbp
	movq	%rsp, %rbp
	.seh_setframe	%rbp, 0
	subq	$32, %rsp
	.seh_stackalloc	32
	.seh_endprologue
	movq	%rcx, 16(%rbp)
	movq	%rdx, 24(%rbp)
	movq	24(%rbp), %rdx
	movq	16(%rbp), %rax
	movq	%rax, %rcx
	call	_ZNSt8_Rb_treeIiSt4pairIKiSt3mapIiiSt4lessIiESaIS0_IS1_iEEEESt10_Select1stIS8_ES4_SaIS8_EE15_M_destroy_nodeEPSt13_Rb_tree_nodeIS8_E
	movq	24(%rbp), %rdx
	movq	16(%rbp), %rax
	movq	%rax, %rcx
	call	_ZNSt8_Rb_treeIiSt4pairIKiSt3mapIiiSt4lessIiESaIS0_IS1_iEEEESt10_Select1stIS8_ES4_SaIS8_EE11_M_put_nodeEPSt13_Rb_tree_nodeIS8_E
	nop
	addq	$32, %rsp
	popq	%rbp
	ret
	.seh_endproc
	.section	.text$_ZNKSt8_Rb_treeIiSt4pairIKiSt3mapIiiSt4lessIiESaIS0_IS1_iEEEESt10_Select1stIS8_ES4_SaIS8_EE9_M_mbeginEv,"x"
	.linkonce discard
	.align 2
	.globl	_ZNKSt8_Rb_treeIiSt4pairIKiSt3mapIiiSt4lessIiESaIS0_IS1_iEEEESt10_Select1stIS8_ES4_SaIS8_EE9_M_mbeginEv
	.def	_ZNKSt8_Rb_treeIiSt4pairIKiSt3mapIiiSt4lessIiESaIS0_IS1_iEEEESt10_Select1stIS8_ES4_SaIS8_EE9_M_mbeginEv;	.scl	2;	.type	32;	.endef
	.seh_proc	_ZNKSt8_Rb_treeIiSt4pairIKiSt3mapIiiSt4lessIiESaIS0_IS1_iEEEESt10_Select1stIS8_ES4_SaIS8_EE9_M_mbeginEv
_ZNKSt8_Rb_treeIiSt4pairIKiSt3mapIiiSt4lessIiESaIS0_IS1_iEEEESt10_Select1stIS8_ES4_SaIS8_EE9_M_mbeginEv:
.LFB11213:
	pushq	%rbp
	.seh_pushreg	%rbp
	movq	%rsp, %rbp
	.seh_setframe	%rbp, 0
	.seh_endprologue
	movq	%rcx, 16(%rbp)
	movq	16(%rbp), %rax
	movq	16(%rax), %rax
	popq	%rbp
	ret
	.seh_endproc
	.section	.text$_ZNSt15__new_allocatorIiE9constructIiJRiEEEvPT_DpOT0_,"x"
	.linkonce discard
	.align 2
	.globl	_ZNSt15__new_allocatorIiE9constructIiJRiEEEvPT_DpOT0_
	.def	_ZNSt15__new_allocatorIiE9constructIiJRiEEEvPT_DpOT0_;	.scl	2;	.type	32;	.endef
	.seh_proc	_ZNSt15__new_allocatorIiE9constructIiJRiEEEvPT_DpOT0_
_ZNSt15__new_allocatorIiE9constructIiJRiEEEvPT_DpOT0_:
.LFB11214:
	pushq	%rbp
	.seh_pushreg	%rbp
	pushq	%rbx
	.seh_pushreg	%rbx
	subq	$40, %rsp
	.seh_stackalloc	40
	leaq	32(%rsp), %rbp
	.seh_setframe	%rbp, 32
	.seh_endprologue
	movq	%rcx, 32(%rbp)
	movq	%rdx, 40(%rbp)
	movq	%r8, 48(%rbp)
	movq	40(%rbp), %rax
	movq	%rax, %rdx
	movl	$4, %ecx
	call	_ZnwyPv
	movq	%rax, %rbx
	movq	48(%rbp), %rax
	movq	%rax, %rcx
	call	_ZSt7forwardIRiEOT_RNSt16remove_referenceIS1_E4typeE
	movl	(%rax), %eax
	movl	%eax, (%rbx)
	nop
	addq	$40, %rsp
	popq	%rbx
	popq	%rbp
	ret
	.seh_endproc
	.section	.text$_ZNKSt6vectorIiSaIiEE12_M_check_lenEyPKc,"x"
	.linkonce discard
	.align 2
	.globl	_ZNKSt6vectorIiSaIiEE12_M_check_lenEyPKc
	.def	_ZNKSt6vectorIiSaIiEE12_M_check_lenEyPKc;	.scl	2;	.type	32;	.endef
	.seh_proc	_ZNKSt6vectorIiSaIiEE12_M_check_lenEyPKc
_ZNKSt6vectorIiSaIiEE12_M_check_lenEyPKc:
.LFB11215:
	pushq	%rbp
	.seh_pushreg	%rbp
	pushq	%rbx
	.seh_pushreg	%rbx
	subq	$56, %rsp
	.seh_stackalloc	56
	leaq	48(%rsp), %rbp
	.seh_setframe	%rbp, 48
	.seh_endprologue
	movq	%rcx, 32(%rbp)
	movq	%rdx, 40(%rbp)
	movq	%r8, 48(%rbp)
	movq	32(%rbp), %rax
	movq	%rax, %rcx
	call	_ZNKSt6vectorIiSaIiEE8max_sizeEv
	movq	%rax, %rbx
	movq	32(%rbp), %rax
	movq	%rax, %rcx
	call	_ZNKSt6vectorIiSaIiEE4sizeEv
	subq	%rax, %rbx
	movq	%rbx, %rdx
	movq	40(%rbp), %rax
	cmpq	%rax, %rdx
	setb	%al
	testb	%al, %al
	je	.L218
	movq	48(%rbp), %rax
	movq	%rax, %rcx
	call	_ZSt20__throw_length_errorPKc
.L218:
	movq	32(%rbp), %rax
	movq	%rax, %rcx
	call	_ZNKSt6vectorIiSaIiEE4sizeEv
	movq	%rax, %rbx
	movq	32(%rbp), %rax
	movq	%rax, %rcx
	call	_ZNKSt6vectorIiSaIiEE4sizeEv
	movq	%rax, -16(%rbp)
	leaq	40(%rbp), %rdx
	leaq	-16(%rbp), %rax
	movq	%rax, %rcx
	call	_ZSt3maxIyERKT_S2_S2_
	movq	(%rax), %rax
	addq	%rbx, %rax
	movq	%rax, -8(%rbp)
	movq	32(%rbp), %rax
	movq	%rax, %rcx
	call	_ZNKSt6vectorIiSaIiEE4sizeEv
	cmpq	%rax, -8(%rbp)
	jb	.L219
	movq	32(%rbp), %rax
	movq	%rax, %rcx
	call	_ZNKSt6vectorIiSaIiEE8max_sizeEv
	cmpq	-8(%rbp), %rax
	jnb	.L220
.L219:
	movq	32(%rbp), %rax
	movq	%rax, %rcx
	call	_ZNKSt6vectorIiSaIiEE8max_sizeEv
	jmp	.L221
.L220:
	movq	-8(%rbp), %rax
.L221:
	addq	$56, %rsp
	popq	%rbx
	popq	%rbp
	ret
	.seh_endproc
	.section	.text$_ZN9__gnu_cxxmiIPiSt6vectorIiSaIiEEEENS_17__normal_iteratorIT_T0_E15difference_typeERKS8_SB_,"x"
	.linkonce discard
	.globl	_ZN9__gnu_cxxmiIPiSt6vectorIiSaIiEEEENS_17__normal_iteratorIT_T0_E15difference_typeERKS8_SB_
	.def	_ZN9__gnu_cxxmiIPiSt6vectorIiSaIiEEEENS_17__normal_iteratorIT_T0_E15difference_typeERKS8_SB_;	.scl	2;	.type	32;	.endef
	.seh_proc	_ZN9__gnu_cxxmiIPiSt6vectorIiSaIiEEEENS_17__normal_iteratorIT_T0_E15difference_typeERKS8_SB_
_ZN9__gnu_cxxmiIPiSt6vectorIiSaIiEEEENS_17__normal_iteratorIT_T0_E15difference_typeERKS8_SB_:
.LFB11216:
	pushq	%rbp
	.seh_pushreg	%rbp
	pushq	%rbx
	.seh_pushreg	%rbx
	subq	$40, %rsp
	.seh_stackalloc	40
	leaq	32(%rsp), %rbp
	.seh_setframe	%rbp, 32
	.seh_endprologue
	movq	%rcx, 32(%rbp)
	movq	%rdx, 40(%rbp)
	movq	32(%rbp), %rax
	movq	%rax, %rcx
	call	_ZNK9__gnu_cxx17__normal_iteratorIPiSt6vectorIiSaIiEEE4baseEv
	movq	(%rax), %rbx
	movq	40(%rbp), %rax
	movq	%rax, %rcx
	call	_ZNK9__gnu_cxx17__normal_iteratorIPiSt6vectorIiSaIiEEE4baseEv
	movq	(%rax), %rax
	subq	%rax, %rbx
	movq	%rbx, %rdx
	movq	%rdx, %rax
	sarq	$2, %rax
	addq	$40, %rsp
	popq	%rbx
	popq	%rbp
	ret
	.seh_endproc
	.section	.text$_ZNSt12_Vector_baseIiSaIiEE11_M_allocateEy,"x"
	.linkonce discard
	.align 2
	.globl	_ZNSt12_Vector_baseIiSaIiEE11_M_allocateEy
	.def	_ZNSt12_Vector_baseIiSaIiEE11_M_allocateEy;	.scl	2;	.type	32;	.endef
	.seh_proc	_ZNSt12_Vector_baseIiSaIiEE11_M_allocateEy
_ZNSt12_Vector_baseIiSaIiEE11_M_allocateEy:
.LFB11217:
	pushq	%rbp
	.seh_pushreg	%rbp
	movq	%rsp, %rbp
	.seh_setframe	%rbp, 0
	subq	$32, %rsp
	.seh_stackalloc	32
	.seh_endprologue
	movq	%rcx, 16(%rbp)
	movq	%rdx, 24(%rbp)
	cmpq	$0, 24(%rbp)
	je	.L226
	movq	16(%rbp), %rax
	movq	24(%rbp), %rdx
	movq	%rax, %rcx
	call	_ZNSt16allocator_traitsISaIiEE8allocateERS0_y
	jmp	.L228
.L226:
	movl	$0, %eax
.L228:
	addq	$32, %rsp
	popq	%rbp
	ret
	.seh_endproc
	.section	.text$_ZNSt6vectorIiSaIiEE11_S_relocateEPiS2_S2_RS0_,"x"
	.linkonce discard
	.globl	_ZNSt6vectorIiSaIiEE11_S_relocateEPiS2_S2_RS0_
	.def	_ZNSt6vectorIiSaIiEE11_S_relocateEPiS2_S2_RS0_;	.scl	2;	.type	32;	.endef
	.seh_proc	_ZNSt6vectorIiSaIiEE11_S_relocateEPiS2_S2_RS0_
_ZNSt6vectorIiSaIiEE11_S_relocateEPiS2_S2_RS0_:
.LFB11218:
	pushq	%rbp
	.seh_pushreg	%rbp
	movq	%rsp, %rbp
	.seh_setframe	%rbp, 0
	subq	$32, %rsp
	.seh_stackalloc	32
	.seh_endprologue
	movq	%rcx, 16(%rbp)
	movq	%rdx, 24(%rbp)
	movq	%r8, 32(%rbp)
	movq	%r9, 40(%rbp)
	movq	40(%rbp), %r8
	movq	32(%rbp), %rcx
	movq	24(%rbp), %rdx
	movq	16(%rbp), %rax
	movq	%r8, %r9
	movq	%rcx, %r8
	movq	%rax, %rcx
	call	_ZSt12__relocate_aIPiS0_SaIiEET0_T_S3_S2_RT1_
	addq	$32, %rsp
	popq	%rbp
	ret
	.seh_endproc
	.section	.text$_ZNK9__gnu_cxx17__normal_iteratorIPiSt6vectorIiSaIiEEEmiEx,"x"
	.linkonce discard
	.align 2
	.globl	_ZNK9__gnu_cxx17__normal_iteratorIPiSt6vectorIiSaIiEEEmiEx
	.def	_ZNK9__gnu_cxx17__normal_iteratorIPiSt6vectorIiSaIiEEEmiEx;	.scl	2;	.type	32;	.endef
	.seh_proc	_ZNK9__gnu_cxx17__normal_iteratorIPiSt6vectorIiSaIiEEEmiEx
_ZNK9__gnu_cxx17__normal_iteratorIPiSt6vectorIiSaIiEEEmiEx:
.LFB11220:
	pushq	%rbp
	.seh_pushreg	%rbp
	movq	%rsp, %rbp
	.seh_setframe	%rbp, 0
	subq	$48, %rsp
	.seh_stackalloc	48
	.seh_endprologue
	movq	%rcx, 16(%rbp)
	movq	%rdx, 24(%rbp)
	movq	16(%rbp), %rax
	movq	(%rax), %rdx
	movq	24(%rbp), %rax
	salq	$2, %rax
	negq	%rax
	addq	%rdx, %rax
	movq	%rax, -8(%rbp)
	leaq	-8(%rbp), %rdx
	leaq	-16(%rbp), %rax
	movq	%rax, %rcx
	call	_ZN9__gnu_cxx17__normal_iteratorIPiSt6vectorIiSaIiEEEC1ERKS1_
	movq	-16(%rbp), %rax
	addq	$48, %rsp
	popq	%rbp
	ret
	.seh_endproc
	.text
	.def	_ZSt4moveIRZ4mainEUl4nodeS0_E_EONSt16remove_referenceIT_E4typeEOS4_;	.scl	3;	.type	32;	.endef
	.seh_proc	_ZSt4moveIRZ4mainEUl4nodeS0_E_EONSt16remove_referenceIT_E4typeEOS4_
_ZSt4moveIRZ4mainEUl4nodeS0_E_EONSt16remove_referenceIT_E4typeEOS4_:
.LFB11221:
	pushq	%rbp
	.seh_pushreg	%rbp
	movq	%rsp, %rbp
	.seh_setframe	%rbp, 0
	.seh_endprologue
	movq	%rcx, 16(%rbp)
	movq	16(%rbp), %rax
	popq	%rbp
	ret
	.seh_endproc
	.align 2
	.def	_ZN9__gnu_cxx5__ops15_Iter_comp_iterIZ4mainEUl4nodeS2_E_EC2ES3_;	.scl	3;	.type	32;	.endef
	.seh_proc	_ZN9__gnu_cxx5__ops15_Iter_comp_iterIZ4mainEUl4nodeS2_E_EC2ES3_
_ZN9__gnu_cxx5__ops15_Iter_comp_iterIZ4mainEUl4nodeS2_E_EC2ES3_:
.LFB11223:
	pushq	%rbp
	.seh_pushreg	%rbp
	movq	%rsp, %rbp
	.seh_setframe	%rbp, 0
	subq	$32, %rsp
	.seh_stackalloc	32
	.seh_endprologue
	movq	%rcx, 16(%rbp)
	leaq	24(%rbp), %rax
	movq	%rax, %rcx
	call	_ZSt4moveIRZ4mainEUl4nodeS0_E_EONSt16remove_referenceIT_E4typeEOS4_
	nop
	addq	$32, %rsp
	popq	%rbp
	ret
	.seh_endproc
	.def	_ZN9__gnu_cxx5__ops15_Iter_comp_iterIZ4mainEUl4nodeS2_E_EC1ES3_;	.scl	3;	.type	32;	.endef
	.set	_ZN9__gnu_cxx5__ops15_Iter_comp_iterIZ4mainEUl4nodeS2_E_EC1ES3_,_ZN9__gnu_cxx5__ops15_Iter_comp_iterIZ4mainEUl4nodeS2_E_EC2ES3_
	.def	_ZSt16__introsort_loopIP4nodexN9__gnu_cxx5__ops15_Iter_comp_iterIZ4mainEUlS0_S0_E_EEEvT_S7_T0_T1_;	.scl	3;	.type	32;	.endef
	.seh_proc	_ZSt16__introsort_loopIP4nodexN9__gnu_cxx5__ops15_Iter_comp_iterIZ4mainEUlS0_S0_E_EEEvT_S7_T0_T1_
_ZSt16__introsort_loopIP4nodexN9__gnu_cxx5__ops15_Iter_comp_iterIZ4mainEUlS0_S0_E_EEEvT_S7_T0_T1_:
.LFB11225:
	pushq	%rbp
	.seh_pushreg	%rbp
	movq	%rsp, %rbp
	.seh_setframe	%rbp, 0
	subq	$48, %rsp
	.seh_stackalloc	48
	.seh_endprologue
	movq	%rcx, 16(%rbp)
	movq	%rdx, 24(%rbp)
	movq	%r8, 32(%rbp)
	jmp	.L237
.L240:
	cmpq	$0, 32(%rbp)
	jne	.L238
	movzbl	40(%rbp), %ecx
	movq	24(%rbp), %r8
	movq	24(%rbp), %rdx
	movq	16(%rbp), %rax
	movl	%ecx, %r9d
	movq	%rax, %rcx
	call	_ZSt14__partial_sortIP4nodeN9__gnu_cxx5__ops15_Iter_comp_iterIZ4mainEUlS0_S0_E_EEEvT_S7_S7_T0_
	jmp	.L236
.L238:
	subq	$1, 32(%rbp)
	movzbl	40(%rbp), %ecx
	movq	24(%rbp), %rdx
	movq	16(%rbp), %rax
	movl	%ecx, %r8d
	movq	%rax, %rcx
	call	_ZSt27__unguarded_partition_pivotIP4nodeN9__gnu_cxx5__ops15_Iter_comp_iterIZ4mainEUlS0_S0_E_EEET_S7_S7_T0_
	movq	%rax, -8(%rbp)
	movzbl	40(%rbp), %ecx
	movq	32(%rbp), %r8
	movq	24(%rbp), %rdx
	movq	-8(%rbp), %rax
	movl	%ecx, %r9d
	movq	%rax, %rcx
	call	_ZSt16__introsort_loopIP4nodexN9__gnu_cxx5__ops15_Iter_comp_iterIZ4mainEUlS0_S0_E_EEEvT_S7_T0_T1_
	movq	-8(%rbp), %rax
	movq	%rax, 24(%rbp)
.L237:
	movq	24(%rbp), %rax
	subq	16(%rbp), %rax
	cmpq	$128, %rax
	jg	.L240
.L236:
	addq	$48, %rsp
	popq	%rbp
	ret
	.seh_endproc
	.def	_ZSt22__final_insertion_sortIP4nodeN9__gnu_cxx5__ops15_Iter_comp_iterIZ4mainEUlS0_S0_E_EEEvT_S7_T0_;	.scl	3;	.type	32;	.endef
	.seh_proc	_ZSt22__final_insertion_sortIP4nodeN9__gnu_cxx5__ops15_Iter_comp_iterIZ4mainEUlS0_S0_E_EEEvT_S7_T0_
_ZSt22__final_insertion_sortIP4nodeN9__gnu_cxx5__ops15_Iter_comp_iterIZ4mainEUlS0_S0_E_EEEvT_S7_T0_:
.LFB11226:
	pushq	%rbp
	.seh_pushreg	%rbp
	movq	%rsp, %rbp
	.seh_setframe	%rbp, 0
	subq	$32, %rsp
	.seh_stackalloc	32
	.seh_endprologue
	movq	%rcx, 16(%rbp)
	movq	%rdx, 24(%rbp)
	movq	24(%rbp), %rax
	subq	16(%rbp), %rax
	cmpq	$128, %rax
	jle	.L242
	movq	16(%rbp), %rax
	leaq	128(%rax), %rdx
	movzbl	32(%rbp), %ecx
	movq	16(%rbp), %rax
	movl	%ecx, %r8d
	movq	%rax, %rcx
	call	_ZSt16__insertion_sortIP4nodeN9__gnu_cxx5__ops15_Iter_comp_iterIZ4mainEUlS0_S0_E_EEEvT_S7_T0_
	movq	16(%rbp), %rax
	subq	$-128, %rax
	movzbl	32(%rbp), %ecx
	movq	24(%rbp), %rdx
	movl	%ecx, %r8d
	movq	%rax, %rcx
	call	_ZSt26__unguarded_insertion_sortIP4nodeN9__gnu_cxx5__ops15_Iter_comp_iterIZ4mainEUlS0_S0_E_EEEvT_S7_T0_
	jmp	.L244
.L242:
	movzbl	32(%rbp), %ecx
	movq	24(%rbp), %rdx
	movq	16(%rbp), %rax
	movl	%ecx, %r8d
	movq	%rax, %rcx
	call	_ZSt16__insertion_sortIP4nodeN9__gnu_cxx5__ops15_Iter_comp_iterIZ4mainEUlS0_S0_E_EEEvT_S7_T0_
.L244:
	nop
	addq	$32, %rsp
	popq	%rbp
	ret
	.seh_endproc
	.section	.text$_ZNSt8_Rb_treeIiSt4pairIKiSt3mapIiiSt4lessIiESaIS0_IS1_iEEEESt10_Select1stIS8_ES4_SaIS8_EE11lower_boundERS1_,"x"
	.linkonce discard
	.align 2
	.globl	_ZNSt8_Rb_treeIiSt4pairIKiSt3mapIiiSt4lessIiESaIS0_IS1_iEEEESt10_Select1stIS8_ES4_SaIS8_EE11lower_boundERS1_
	.def	_ZNSt8_Rb_treeIiSt4pairIKiSt3mapIiiSt4lessIiESaIS0_IS1_iEEEESt10_Select1stIS8_ES4_SaIS8_EE11lower_boundERS1_;	.scl	2;	.type	32;	.endef
	.seh_proc	_ZNSt8_Rb_treeIiSt4pairIKiSt3mapIiiSt4lessIiESaIS0_IS1_iEEEESt10_Select1stIS8_ES4_SaIS8_EE11lower_boundERS1_
_ZNSt8_Rb_treeIiSt4pairIKiSt3mapIiiSt4lessIiESaIS0_IS1_iEEEESt10_Select1stIS8_ES4_SaIS8_EE11lower_boundERS1_:
.LFB11227:
	pushq	%rbp
	.seh_pushreg	%rbp
	pushq	%rbx
	.seh_pushreg	%rbx
	subq	$40, %rsp
	.seh_stackalloc	40
	leaq	32(%rsp), %rbp
	.seh_setframe	%rbp, 32
	.seh_endprologue
	movq	%rcx, 32(%rbp)
	movq	%rdx, 40(%rbp)
	movq	32(%rbp), %rax
	movq	%rax, %rcx
	call	_ZNSt8_Rb_treeIiSt4pairIKiSt3mapIiiSt4lessIiESaIS0_IS1_iEEEESt10_Select1stIS8_ES4_SaIS8_EE6_M_endEv
	movq	%rax, %rbx
	movq	32(%rbp), %rax
	movq	%rax, %rcx
	call	_ZNSt8_Rb_treeIiSt4pairIKiSt3mapIiiSt4lessIiESaIS0_IS1_iEEEESt10_Select1stIS8_ES4_SaIS8_EE8_M_beginEv
	movq	%rax, %rdx
	movq	40(%rbp), %rcx
	movq	32(%rbp), %rax
	movq	%rcx, %r9
	movq	%rbx, %r8
	movq	%rax, %rcx
	call	_ZNSt8_Rb_treeIiSt4pairIKiSt3mapIiiSt4lessIiESaIS0_IS1_iEEEESt10_Select1stIS8_ES4_SaIS8_EE14_M_lower_boundEPSt13_Rb_tree_nodeIS8_EPSt18_Rb_tree_node_baseRS1_
	addq	$40, %rsp
	popq	%rbx
	popq	%rbp
	ret
	.seh_endproc
	.section	.text$_ZNSt8_Rb_treeIiSt4pairIKiSt3mapIiiSt4lessIiESaIS0_IS1_iEEEESt10_Select1stIS8_ES4_SaIS8_EE3endEv,"x"
	.linkonce discard
	.align 2
	.globl	_ZNSt8_Rb_treeIiSt4pairIKiSt3mapIiiSt4lessIiESaIS0_IS1_iEEEESt10_Select1stIS8_ES4_SaIS8_EE3endEv
	.def	_ZNSt8_Rb_treeIiSt4pairIKiSt3mapIiiSt4lessIiESaIS0_IS1_iEEEESt10_Select1stIS8_ES4_SaIS8_EE3endEv;	.scl	2;	.type	32;	.endef
	.seh_proc	_ZNSt8_Rb_treeIiSt4pairIKiSt3mapIiiSt4lessIiESaIS0_IS1_iEEEESt10_Select1stIS8_ES4_SaIS8_EE3endEv
_ZNSt8_Rb_treeIiSt4pairIKiSt3mapIiiSt4lessIiESaIS0_IS1_iEEEESt10_Select1stIS8_ES4_SaIS8_EE3endEv:
.LFB11228:
	pushq	%rbp
	.seh_pushreg	%rbp
	movq	%rsp, %rbp
	.seh_setframe	%rbp, 0
	subq	$48, %rsp
	.seh_stackalloc	48
	.seh_endprologue
	movq	%rcx, 16(%rbp)
	movq	16(%rbp), %rax
	leaq	8(%rax), %rdx
	leaq	-8(%rbp), %rax
	movq	%rax, %rcx
	call	_ZNSt17_Rb_tree_iteratorISt4pairIKiSt3mapIiiSt4lessIiESaIS0_IS1_iEEEEEC1EPSt18_Rb_tree_node_base
	movq	-8(%rbp), %rax
	addq	$48, %rsp
	popq	%rbp
	ret
	.seh_endproc
	.section	.text$_ZNKSt8_Rb_treeIiSt4pairIKiSt3mapIiiSt4lessIiESaIS0_IS1_iEEEESt10_Select1stIS8_ES4_SaIS8_EE8key_compEv,"x"
	.linkonce discard
	.align 2
	.globl	_ZNKSt8_Rb_treeIiSt4pairIKiSt3mapIiiSt4lessIiESaIS0_IS1_iEEEESt10_Select1stIS8_ES4_SaIS8_EE8key_compEv
	.def	_ZNKSt8_Rb_treeIiSt4pairIKiSt3mapIiiSt4lessIiESaIS0_IS1_iEEEESt10_Select1stIS8_ES4_SaIS8_EE8key_compEv;	.scl	2;	.type	32;	.endef
	.seh_proc	_ZNKSt8_Rb_treeIiSt4pairIKiSt3mapIiiSt4lessIiESaIS0_IS1_iEEEESt10_Select1stIS8_ES4_SaIS8_EE8key_compEv
_ZNKSt8_Rb_treeIiSt4pairIKiSt3mapIiiSt4lessIiESaIS0_IS1_iEEEESt10_Select1stIS8_ES4_SaIS8_EE8key_compEv:
.LFB11229:
	pushq	%rbp
	.seh_pushreg	%rbp
	movq	%rsp, %rbp
	.seh_setframe	%rbp, 0
	.seh_endprologue
	movq	%rcx, 16(%rbp)
	nop
	popq	%rbp
	ret
	.seh_endproc
	.section	.text$_ZNSt13_Rb_tree_nodeISt4pairIKiSt3mapIiiSt4lessIiESaIS0_IS1_iEEEEE9_M_valptrEv,"x"
	.linkonce discard
	.align 2
	.globl	_ZNSt13_Rb_tree_nodeISt4pairIKiSt3mapIiiSt4lessIiESaIS0_IS1_iEEEEE9_M_valptrEv
	.def	_ZNSt13_Rb_tree_nodeISt4pairIKiSt3mapIiiSt4lessIiESaIS0_IS1_iEEEEE9_M_valptrEv;	.scl	2;	.type	32;	.endef
	.seh_proc	_ZNSt13_Rb_tree_nodeISt4pairIKiSt3mapIiiSt4lessIiESaIS0_IS1_iEEEEE9_M_valptrEv
_ZNSt13_Rb_tree_nodeISt4pairIKiSt3mapIiiSt4lessIiESaIS0_IS1_iEEEEE9_M_valptrEv:
.LFB11230:
	pushq	%rbp
	.seh_pushreg	%rbp
	movq	%rsp, %rbp
	.seh_setframe	%rbp, 0
	subq	$32, %rsp
	.seh_stackalloc	32
	.seh_endprologue
	movq	%rcx, 16(%rbp)
	movq	16(%rbp), %rax
	addq	$32, %rax
	movq	%rax, %rcx
	call	_ZN9__gnu_cxx16__aligned_membufISt4pairIKiSt3mapIiiSt4lessIiESaIS1_IS2_iEEEEE6_M_ptrEv
	addq	$32, %rsp
	popq	%rbp
	ret
	.seh_endproc
	.section	.text$_ZNSt11_Tuple_implILy0EJRKiEEC2ES1_,"x"
	.linkonce discard
	.align 2
	.globl	_ZNSt11_Tuple_implILy0EJRKiEEC2ES1_
	.def	_ZNSt11_Tuple_implILy0EJRKiEEC2ES1_;	.scl	2;	.type	32;	.endef
	.seh_proc	_ZNSt11_Tuple_implILy0EJRKiEEC2ES1_
_ZNSt11_Tuple_implILy0EJRKiEEC2ES1_:
.LFB11232:
	pushq	%rbp
	.seh_pushreg	%rbp
	movq	%rsp, %rbp
	.seh_setframe	%rbp, 0
	subq	$32, %rsp
	.seh_stackalloc	32
	.seh_endprologue
	movq	%rcx, 16(%rbp)
	movq	%rdx, 24(%rbp)
	movq	16(%rbp), %rax
	movq	24(%rbp), %rdx
	movq	%rax, %rcx
	call	_ZNSt10_Head_baseILy0ERKiLb0EEC2ES1_
	nop
	addq	$32, %rsp
	popq	%rbp
	ret
	.seh_endproc
	.section	.text$_ZSt7forwardIRKSt21piecewise_construct_tEOT_RNSt16remove_referenceIS3_E4typeE,"x"
	.linkonce discard
	.globl	_ZSt7forwardIRKSt21piecewise_construct_tEOT_RNSt16remove_referenceIS3_E4typeE
	.def	_ZSt7forwardIRKSt21piecewise_construct_tEOT_RNSt16remove_referenceIS3_E4typeE;	.scl	2;	.type	32;	.endef
	.seh_proc	_ZSt7forwardIRKSt21piecewise_construct_tEOT_RNSt16remove_referenceIS3_E4typeE
_ZSt7forwardIRKSt21piecewise_construct_tEOT_RNSt16remove_referenceIS3_E4typeE:
.LFB11234:
	pushq	%rbp
	.seh_pushreg	%rbp
	movq	%rsp, %rbp
	.seh_setframe	%rbp, 0
	.seh_endprologue
	movq	%rcx, 16(%rbp)
	movq	16(%rbp), %rax
	popq	%rbp
	ret
	.seh_endproc
	.section	.text$_ZSt7forwardISt5tupleIJRKiEEEOT_RNSt16remove_referenceIS4_E4typeE,"x"
	.linkonce discard
	.globl	_ZSt7forwardISt5tupleIJRKiEEEOT_RNSt16remove_referenceIS4_E4typeE
	.def	_ZSt7forwardISt5tupleIJRKiEEEOT_RNSt16remove_referenceIS4_E4typeE;	.scl	2;	.type	32;	.endef
	.seh_proc	_ZSt7forwardISt5tupleIJRKiEEEOT_RNSt16remove_referenceIS4_E4typeE
_ZSt7forwardISt5tupleIJRKiEEEOT_RNSt16remove_referenceIS4_E4typeE:
.LFB11235:
	pushq	%rbp
	.seh_pushreg	%rbp
	movq	%rsp, %rbp
	.seh_setframe	%rbp, 0
	.seh_endprologue
	movq	%rcx, 16(%rbp)
	movq	16(%rbp), %rax
	popq	%rbp
	ret
	.seh_endproc
	.section	.text$_ZSt7forwardISt5tupleIJEEEOT_RNSt16remove_referenceIS2_E4typeE,"x"
	.linkonce discard
	.globl	_ZSt7forwardISt5tupleIJEEEOT_RNSt16remove_referenceIS2_E4typeE
	.def	_ZSt7forwardISt5tupleIJEEEOT_RNSt16remove_referenceIS2_E4typeE;	.scl	2;	.type	32;	.endef
	.seh_proc	_ZSt7forwardISt5tupleIJEEEOT_RNSt16remove_referenceIS2_E4typeE
_ZSt7forwardISt5tupleIJEEEOT_RNSt16remove_referenceIS2_E4typeE:
.LFB11236:
	pushq	%rbp
	.seh_pushreg	%rbp
	movq	%rsp, %rbp
	.seh_setframe	%rbp, 0
	.seh_endprologue
	movq	%rcx, 16(%rbp)
	movq	16(%rbp), %rax
	popq	%rbp
	ret
	.seh_endproc
	.section	.text$_ZNSt8_Rb_treeIiSt4pairIKiSt3mapIiiSt4lessIiESaIS0_IS1_iEEEESt10_Select1stIS8_ES4_SaIS8_EE10_Auto_nodeC1IJRKSt21piecewise_construct_tSt5tupleIJRS1_EESI_IJEEEEERSC_DpOT_,"x"
	.linkonce discard
	.align 2
	.globl	_ZNSt8_Rb_treeIiSt4pairIKiSt3mapIiiSt4lessIiESaIS0_IS1_iEEEESt10_Select1stIS8_ES4_SaIS8_EE10_Auto_nodeC1IJRKSt21piecewise_construct_tSt5tupleIJRS1_EESI_IJEEEEERSC_DpOT_
	.def	_ZNSt8_Rb_treeIiSt4pairIKiSt3mapIiiSt4lessIiESaIS0_IS1_iEEEESt10_Select1stIS8_ES4_SaIS8_EE10_Auto_nodeC1IJRKSt21piecewise_construct_tSt5tupleIJRS1_EESI_IJEEEEERSC_DpOT_;	.scl	2;	.type	32;	.endef
	.seh_proc	_ZNSt8_Rb_treeIiSt4pairIKiSt3mapIiiSt4lessIiESaIS0_IS1_iEEEESt10_Select1stIS8_ES4_SaIS8_EE10_Auto_nodeC1IJRKSt21piecewise_construct_tSt5tupleIJRS1_EESI_IJEEEEERSC_DpOT_
_ZNSt8_Rb_treeIiSt4pairIKiSt3mapIiiSt4lessIiESaIS0_IS1_iEEEESt10_Select1stIS8_ES4_SaIS8_EE10_Auto_nodeC1IJRKSt21piecewise_construct_tSt5tupleIJRS1_EESI_IJEEEEERSC_DpOT_:
.LFB11239:
	pushq	%rbp
	.seh_pushreg	%rbp
	pushq	%rsi
	.seh_pushreg	%rsi
	pushq	%rbx
	.seh_pushreg	%rbx
	subq	$32, %rsp
	.seh_stackalloc	32
	leaq	32(%rsp), %rbp
	.seh_setframe	%rbp, 32
	.seh_endprologue
	movq	%rcx, 32(%rbp)
	movq	%rdx, 40(%rbp)
	movq	%r8, 48(%rbp)
	movq	%r9, 56(%rbp)
	movq	32(%rbp), %rax
	movq	40(%rbp), %rdx
	movq	%rdx, (%rax)
	movq	64(%rbp), %rax
	movq	%rax, %rcx
	call	_ZSt7forwardISt5tupleIJEEEOT_RNSt16remove_referenceIS2_E4typeE
	movq	%rax, %rsi
	movq	56(%rbp), %rax
	movq	%rax, %rcx
	call	_ZSt7forwardISt5tupleIJRKiEEEOT_RNSt16remove_referenceIS4_E4typeE
	movq	%rax, %rbx
	movq	48(%rbp), %rax
	movq	%rax, %rcx
	call	_ZSt7forwardIRKSt21piecewise_construct_tEOT_RNSt16remove_referenceIS3_E4typeE
	movq	%rax, %rdx
	movq	40(%rbp), %rax
	movq	%rsi, %r9
	movq	%rbx, %r8
	movq	%rax, %rcx
	call	_ZNSt8_Rb_treeIiSt4pairIKiSt3mapIiiSt4lessIiESaIS0_IS1_iEEEESt10_Select1stIS8_ES4_SaIS8_EE14_M_create_nodeIJRKSt21piecewise_construct_tSt5tupleIJRS1_EESH_IJEEEEEPSt13_Rb_tree_nodeIS8_EDpOT_
	movq	32(%rbp), %rdx
	movq	%rax, 8(%rdx)
	nop
	addq	$32, %rsp
	popq	%rbx
	popq	%rsi
	popq	%rbp
	ret
	.seh_endproc
	.section	.text$_ZNSt8_Rb_treeIiSt4pairIKiSt3mapIiiSt4lessIiESaIS0_IS1_iEEEESt10_Select1stIS8_ES4_SaIS8_EE10_Auto_nodeD1Ev,"x"
	.linkonce discard
	.align 2
	.globl	_ZNSt8_Rb_treeIiSt4pairIKiSt3mapIiiSt4lessIiESaIS0_IS1_iEEEESt10_Select1stIS8_ES4_SaIS8_EE10_Auto_nodeD1Ev
	.def	_ZNSt8_Rb_treeIiSt4pairIKiSt3mapIiiSt4lessIiESaIS0_IS1_iEEEESt10_Select1stIS8_ES4_SaIS8_EE10_Auto_nodeD1Ev;	.scl	2;	.type	32;	.endef
	.seh_proc	_ZNSt8_Rb_treeIiSt4pairIKiSt3mapIiiSt4lessIiESaIS0_IS1_iEEEESt10_Select1stIS8_ES4_SaIS8_EE10_Auto_nodeD1Ev
_ZNSt8_Rb_treeIiSt4pairIKiSt3mapIiiSt4lessIiESaIS0_IS1_iEEEESt10_Select1stIS8_ES4_SaIS8_EE10_Auto_nodeD1Ev:
.LFB11242:
	pushq	%rbp
	.seh_pushreg	%rbp
	movq	%rsp, %rbp
	.seh_setframe	%rbp, 0
	subq	$32, %rsp
	.seh_stackalloc	32
	.seh_endprologue
	movq	%rcx, 16(%rbp)
	movq	16(%rbp), %rax
	movq	8(%rax), %rax
	testq	%rax, %rax
	je	.L263
	movq	16(%rbp), %rax
	movq	(%rax), %rax
	movq	16(%rbp), %rdx
	movq	8(%rdx), %rdx
	movq	%rax, %rcx
	call	_ZNSt8_Rb_treeIiSt4pairIKiSt3mapIiiSt4lessIiESaIS0_IS1_iEEEESt10_Select1stIS8_ES4_SaIS8_EE12_M_drop_nodeEPSt13_Rb_tree_nodeIS8_E
.L263:
	nop
	addq	$32, %rsp
	popq	%rbp
	ret
	.seh_endproc
	.section	.text$_ZNSt8_Rb_treeIiSt4pairIKiSt3mapIiiSt4lessIiESaIS0_IS1_iEEEESt10_Select1stIS8_ES4_SaIS8_EE29_M_get_insert_hint_unique_posESt23_Rb_tree_const_iteratorIS8_ERS1_,"x"
	.linkonce discard
	.align 2
	.globl	_ZNSt8_Rb_treeIiSt4pairIKiSt3mapIiiSt4lessIiESaIS0_IS1_iEEEESt10_Select1stIS8_ES4_SaIS8_EE29_M_get_insert_hint_unique_posESt23_Rb_tree_const_iteratorIS8_ERS1_
	.def	_ZNSt8_Rb_treeIiSt4pairIKiSt3mapIiiSt4lessIiESaIS0_IS1_iEEEESt10_Select1stIS8_ES4_SaIS8_EE29_M_get_insert_hint_unique_posESt23_Rb_tree_const_iteratorIS8_ERS1_;	.scl	2;	.type	32;	.endef
	.seh_proc	_ZNSt8_Rb_treeIiSt4pairIKiSt3mapIiiSt4lessIiESaIS0_IS1_iEEEESt10_Select1stIS8_ES4_SaIS8_EE29_M_get_insert_hint_unique_posESt23_Rb_tree_const_iteratorIS8_ERS1_
_ZNSt8_Rb_treeIiSt4pairIKiSt3mapIiiSt4lessIiESaIS0_IS1_iEEEESt10_Select1stIS8_ES4_SaIS8_EE29_M_get_insert_hint_unique_posESt23_Rb_tree_const_iteratorIS8_ERS1_:
.LFB11243:
	pushq	%rbp
	.seh_pushreg	%rbp
	pushq	%rbx
	.seh_pushreg	%rbx
	subq	$104, %rsp
	.seh_stackalloc	104
	leaq	96(%rsp), %rbp
	.seh_setframe	%rbp, 96
	.seh_endprologue
	movq	%rcx, 32(%rbp)
	movq	%rdx, 40(%rbp)
	movq	%r8, 48(%rbp)
	movq	%r9, 56(%rbp)
	leaq	48(%rbp), %rax
	movq	%rax, %rcx
	call	_ZNKSt23_Rb_tree_const_iteratorISt4pairIKiSt3mapIiiSt4lessIiESaIS0_IS1_iEEEEE13_M_const_castEv
	movq	%rax, -48(%rbp)
	movq	-48(%rbp), %rbx
	movq	40(%rbp), %rax
	movq	%rax, %rcx
	call	_ZNSt8_Rb_treeIiSt4pairIKiSt3mapIiiSt4lessIiESaIS0_IS1_iEEEESt10_Select1stIS8_ES4_SaIS8_EE6_M_endEv
	cmpq	%rax, %rbx
	sete	%al
	testb	%al, %al
	je	.L265
	movq	40(%rbp), %rax
	movq	%rax, %rcx
	call	_ZNKSt8_Rb_treeIiSt4pairIKiSt3mapIiiSt4lessIiESaIS0_IS1_iEEEESt10_Select1stIS8_ES4_SaIS8_EE4sizeEv
	testq	%rax, %rax
	je	.L266
	movq	40(%rbp), %rbx
	movq	40(%rbp), %rax
	movq	%rax, %rcx
	call	_ZNSt8_Rb_treeIiSt4pairIKiSt3mapIiiSt4lessIiESaIS0_IS1_iEEEESt10_Select1stIS8_ES4_SaIS8_EE12_M_rightmostEv
	movq	(%rax), %rax
	movq	%rax, %rcx
	call	_ZNSt8_Rb_treeIiSt4pairIKiSt3mapIiiSt4lessIiESaIS0_IS1_iEEEESt10_Select1stIS8_ES4_SaIS8_EE6_S_keyEPKSt18_Rb_tree_node_base
	movq	56(%rbp), %rdx
	movq	%rdx, %r8
	movq	%rax, %rdx
	movq	%rbx, %rcx
	call	_ZNKSt4lessIiEclERKiS2_
	testb	%al, %al
	je	.L266
	movl	$1, %eax
	jmp	.L267
.L266:
	movl	$0, %eax
.L267:
	testb	%al, %al
	je	.L268
	movq	40(%rbp), %rax
	movq	%rax, %rcx
	call	_ZNSt8_Rb_treeIiSt4pairIKiSt3mapIiiSt4lessIiESaIS0_IS1_iEEEESt10_Select1stIS8_ES4_SaIS8_EE12_M_rightmostEv
	movq	%rax, %rdx
	movq	$0, -40(%rbp)
	leaq	-40(%rbp), %rax
	movq	32(%rbp), %rcx
	movq	%rdx, %r8
	movq	%rax, %rdx
	call	_ZNSt4pairIPSt18_Rb_tree_node_baseS1_EC1IS1_S1_Lb1EEERKS1_S5_
	jmp	.L264
.L268:
	movq	32(%rbp), %rax
	movq	56(%rbp), %rcx
	movq	40(%rbp), %rdx
	movq	%rcx, %r8
	movq	%rax, %rcx
	call	_ZNSt8_Rb_treeIiSt4pairIKiSt3mapIiiSt4lessIiESaIS0_IS1_iEEEESt10_Select1stIS8_ES4_SaIS8_EE24_M_get_insert_unique_posERS1_
	jmp	.L264
.L265:
	movq	40(%rbp), %rbx
	movq	-48(%rbp), %rax
	movq	%rax, %rcx
	call	_ZNSt8_Rb_treeIiSt4pairIKiSt3mapIiiSt4lessIiESaIS0_IS1_iEEEESt10_Select1stIS8_ES4_SaIS8_EE6_S_keyEPKSt18_Rb_tree_node_base
	movq	%rax, %rdx
	movq	56(%rbp), %rax
	movq	%rdx, %r8
	movq	%rax, %rdx
	movq	%rbx, %rcx
	call	_ZNKSt4lessIiEclERKiS2_
	testb	%al, %al
	je	.L270
	movq	-48(%rbp), %rax
	movq	%rax, -56(%rbp)
	movq	-48(%rbp), %rbx
	movq	40(%rbp), %rax
	movq	%rax, %rcx
	call	_ZNSt8_Rb_treeIiSt4pairIKiSt3mapIiiSt4lessIiESaIS0_IS1_iEEEESt10_Select1stIS8_ES4_SaIS8_EE11_M_leftmostEv
	movq	(%rax), %rax
	cmpq	%rax, %rbx
	sete	%al
	testb	%al, %al
	je	.L271
	movq	40(%rbp), %rax
	movq	%rax, %rcx
	call	_ZNSt8_Rb_treeIiSt4pairIKiSt3mapIiiSt4lessIiESaIS0_IS1_iEEEESt10_Select1stIS8_ES4_SaIS8_EE11_M_leftmostEv
	movq	%rax, %rbx
	movq	40(%rbp), %rax
	movq	%rax, %rcx
	call	_ZNSt8_Rb_treeIiSt4pairIKiSt3mapIiiSt4lessIiESaIS0_IS1_iEEEESt10_Select1stIS8_ES4_SaIS8_EE11_M_leftmostEv
	movq	%rax, %rdx
	movq	32(%rbp), %rax
	movq	%rbx, %r8
	movq	%rax, %rcx
	call	_ZNSt4pairIPSt18_Rb_tree_node_baseS1_EC1IRS1_S4_Lb1EEEOT_OT0_
	jmp	.L264
.L271:
	movq	40(%rbp), %rbx
	leaq	-56(%rbp), %rax
	movq	%rax, %rcx
	call	_ZNSt17_Rb_tree_iteratorISt4pairIKiSt3mapIiiSt4lessIiESaIS0_IS1_iEEEEEmmEv
	movq	(%rax), %rax
	movq	%rax, %rcx
	call	_ZNSt8_Rb_treeIiSt4pairIKiSt3mapIiiSt4lessIiESaIS0_IS1_iEEEESt10_Select1stIS8_ES4_SaIS8_EE6_S_keyEPKSt18_Rb_tree_node_base
	movq	56(%rbp), %rdx
	movq	%rdx, %r8
	movq	%rax, %rdx
	movq	%rbx, %rcx
	call	_ZNKSt4lessIiEclERKiS2_
	testb	%al, %al
	je	.L273
	movq	-56(%rbp), %rax
	movq	%rax, %rcx
	call	_ZNSt8_Rb_treeIiSt4pairIKiSt3mapIiiSt4lessIiESaIS0_IS1_iEEEESt10_Select1stIS8_ES4_SaIS8_EE8_S_rightEPSt18_Rb_tree_node_base
	testq	%rax, %rax
	sete	%al
	testb	%al, %al
	je	.L274
	movq	$0, -32(%rbp)
	leaq	-56(%rbp), %rdx
	leaq	-32(%rbp), %rax
	movq	32(%rbp), %rcx
	movq	%rdx, %r8
	movq	%rax, %rdx
	call	_ZNSt4pairIPSt18_Rb_tree_node_baseS1_EC1IS1_S1_Lb1EEERKS1_S5_
	jmp	.L264
.L274:
	leaq	-48(%rbp), %rdx
	leaq	-48(%rbp), %rax
	movq	32(%rbp), %rcx
	movq	%rdx, %r8
	movq	%rax, %rdx
	call	_ZNSt4pairIPSt18_Rb_tree_node_baseS1_EC1IRS1_S4_Lb1EEEOT_OT0_
	jmp	.L264
.L273:
	movq	32(%rbp), %rax
	movq	56(%rbp), %rcx
	movq	40(%rbp), %rdx
	movq	%rcx, %r8
	movq	%rax, %rcx
	call	_ZNSt8_Rb_treeIiSt4pairIKiSt3mapIiiSt4lessIiESaIS0_IS1_iEEEESt10_Select1stIS8_ES4_SaIS8_EE24_M_get_insert_unique_posERS1_
	jmp	.L264
.L270:
	movq	40(%rbp), %rbx
	movq	-48(%rbp), %rax
	movq	%rax, %rcx
	call	_ZNSt8_Rb_treeIiSt4pairIKiSt3mapIiiSt4lessIiESaIS0_IS1_iEEEESt10_Select1stIS8_ES4_SaIS8_EE6_S_keyEPKSt18_Rb_tree_node_base
	movq	56(%rbp), %rdx
	movq	%rdx, %r8
	movq	%rax, %rdx
	movq	%rbx, %rcx
	call	_ZNKSt4lessIiEclERKiS2_
	testb	%al, %al
	je	.L275
	movq	-48(%rbp), %rax
	movq	%rax, -64(%rbp)
	movq	-48(%rbp), %rbx
	movq	40(%rbp), %rax
	movq	%rax, %rcx
	call	_ZNSt8_Rb_treeIiSt4pairIKiSt3mapIiiSt4lessIiESaIS0_IS1_iEEEESt10_Select1stIS8_ES4_SaIS8_EE12_M_rightmostEv
	movq	(%rax), %rax
	cmpq	%rax, %rbx
	sete	%al
	testb	%al, %al
	je	.L276
	movq	40(%rbp), %rax
	movq	%rax, %rcx
	call	_ZNSt8_Rb_treeIiSt4pairIKiSt3mapIiiSt4lessIiESaIS0_IS1_iEEEESt10_Select1stIS8_ES4_SaIS8_EE12_M_rightmostEv
	movq	%rax, %rdx
	movq	$0, -24(%rbp)
	leaq	-24(%rbp), %rax
	movq	32(%rbp), %rcx
	movq	%rdx, %r8
	movq	%rax, %rdx
	call	_ZNSt4pairIPSt18_Rb_tree_node_baseS1_EC1IS1_S1_Lb1EEERKS1_S5_
	jmp	.L264
.L276:
	movq	40(%rbp), %rbx
	leaq	-64(%rbp), %rax
	movq	%rax, %rcx
	call	_ZNSt17_Rb_tree_iteratorISt4pairIKiSt3mapIiiSt4lessIiESaIS0_IS1_iEEEEEppEv
	movq	(%rax), %rax
	movq	%rax, %rcx
	call	_ZNSt8_Rb_treeIiSt4pairIKiSt3mapIiiSt4lessIiESaIS0_IS1_iEEEESt10_Select1stIS8_ES4_SaIS8_EE6_S_keyEPKSt18_Rb_tree_node_base
	movq	%rax, %rdx
	movq	56(%rbp), %rax
	movq	%rdx, %r8
	movq	%rax, %rdx
	movq	%rbx, %rcx
	call	_ZNKSt4lessIiEclERKiS2_
	testb	%al, %al
	je	.L278
	movq	-48(%rbp), %rax
	movq	%rax, %rcx
	call	_ZNSt8_Rb_treeIiSt4pairIKiSt3mapIiiSt4lessIiESaIS0_IS1_iEEEESt10_Select1stIS8_ES4_SaIS8_EE8_S_rightEPSt18_Rb_tree_node_base
	testq	%rax, %rax
	sete	%al
	testb	%al, %al
	je	.L279
	movq	$0, -16(%rbp)
	leaq	-48(%rbp), %rdx
	leaq	-16(%rbp), %rax
	movq	32(%rbp), %rcx
	movq	%rdx, %r8
	movq	%rax, %rdx
	call	_ZNSt4pairIPSt18_Rb_tree_node_baseS1_EC1IS1_S1_Lb1EEERKS1_S5_
	jmp	.L264
.L279:
	leaq	-64(%rbp), %rdx
	leaq	-64(%rbp), %rax
	movq	32(%rbp), %rcx
	movq	%rdx, %r8
	movq	%rax, %rdx
	call	_ZNSt4pairIPSt18_Rb_tree_node_baseS1_EC1IRS1_S4_Lb1EEEOT_OT0_
	jmp	.L264
.L278:
	movq	32(%rbp), %rax
	movq	56(%rbp), %rcx
	movq	40(%rbp), %rdx
	movq	%rcx, %r8
	movq	%rax, %rcx
	call	_ZNSt8_Rb_treeIiSt4pairIKiSt3mapIiiSt4lessIiESaIS0_IS1_iEEEESt10_Select1stIS8_ES4_SaIS8_EE24_M_get_insert_unique_posERS1_
	jmp	.L264
.L275:
	movq	$0, -8(%rbp)
	leaq	-8(%rbp), %rdx
	leaq	-48(%rbp), %rax
	movq	32(%rbp), %rcx
	movq	%rdx, %r8
	movq	%rax, %rdx
	call	_ZNSt4pairIPSt18_Rb_tree_node_baseS1_EC1IS1_S1_Lb1EEERKS1_S5_
.L264:
	movq	32(%rbp), %rax
	addq	$104, %rsp
	popq	%rbx
	popq	%rbp
	ret
	.seh_endproc
	.section	.text$_ZNKSt8_Rb_treeIiSt4pairIKiSt3mapIiiSt4lessIiESaIS0_IS1_iEEEESt10_Select1stIS8_ES4_SaIS8_EE10_Auto_node6_M_keyEv,"x"
	.linkonce discard
	.align 2
	.globl	_ZNKSt8_Rb_treeIiSt4pairIKiSt3mapIiiSt4lessIiESaIS0_IS1_iEEEESt10_Select1stIS8_ES4_SaIS8_EE10_Auto_node6_M_keyEv
	.def	_ZNKSt8_Rb_treeIiSt4pairIKiSt3mapIiiSt4lessIiESaIS0_IS1_iEEEESt10_Select1stIS8_ES4_SaIS8_EE10_Auto_node6_M_keyEv;	.scl	2;	.type	32;	.endef
	.seh_proc	_ZNKSt8_Rb_treeIiSt4pairIKiSt3mapIiiSt4lessIiESaIS0_IS1_iEEEESt10_Select1stIS8_ES4_SaIS8_EE10_Auto_node6_M_keyEv
_ZNKSt8_Rb_treeIiSt4pairIKiSt3mapIiiSt4lessIiESaIS0_IS1_iEEEESt10_Select1stIS8_ES4_SaIS8_EE10_Auto_node6_M_keyEv:
.LFB11252:
	pushq	%rbp
	.seh_pushreg	%rbp
	movq	%rsp, %rbp
	.seh_setframe	%rbp, 0
	subq	$32, %rsp
	.seh_stackalloc	32
	.seh_endprologue
	movq	%rcx, 16(%rbp)
	movq	16(%rbp), %rax
	movq	8(%rax), %rax
	movq	%rax, %rcx
	call	_ZNSt8_Rb_treeIiSt4pairIKiSt3mapIiiSt4lessIiESaIS0_IS1_iEEEESt10_Select1stIS8_ES4_SaIS8_EE6_S_keyEPKSt13_Rb_tree_nodeIS8_E
	addq	$32, %rsp
	popq	%rbp
	ret
	.seh_endproc
	.section	.text$_ZNSt8_Rb_treeIiSt4pairIKiSt3mapIiiSt4lessIiESaIS0_IS1_iEEEESt10_Select1stIS8_ES4_SaIS8_EE10_Auto_node9_M_insertES0_IPSt18_Rb_tree_node_baseSF_E,"x"
	.linkonce discard
	.align 2
	.globl	_ZNSt8_Rb_treeIiSt4pairIKiSt3mapIiiSt4lessIiESaIS0_IS1_iEEEESt10_Select1stIS8_ES4_SaIS8_EE10_Auto_node9_M_insertES0_IPSt18_Rb_tree_node_baseSF_E
	.def	_ZNSt8_Rb_treeIiSt4pairIKiSt3mapIiiSt4lessIiESaIS0_IS1_iEEEESt10_Select1stIS8_ES4_SaIS8_EE10_Auto_node9_M_insertES0_IPSt18_Rb_tree_node_baseSF_E;	.scl	2;	.type	32;	.endef
	.seh_proc	_ZNSt8_Rb_treeIiSt4pairIKiSt3mapIiiSt4lessIiESaIS0_IS1_iEEEESt10_Select1stIS8_ES4_SaIS8_EE10_Auto_node9_M_insertES0_IPSt18_Rb_tree_node_baseSF_E
_ZNSt8_Rb_treeIiSt4pairIKiSt3mapIiiSt4lessIiESaIS0_IS1_iEEEESt10_Select1stIS8_ES4_SaIS8_EE10_Auto_node9_M_insertES0_IPSt18_Rb_tree_node_baseSF_E:
.LFB11253:
	pushq	%rbp
	.seh_pushreg	%rbp
	pushq	%rbx
	.seh_pushreg	%rbx
	subq	$72, %rsp
	.seh_stackalloc	72
	leaq	64(%rsp), %rbp
	.seh_setframe	%rbp, 64
	.seh_endprologue
	movq	%rcx, 32(%rbp)
	movq	%rdx, %rbx
	movq	(%rbx), %rax
	movq	8(%rbx), %rdx
	movq	%rax, -32(%rbp)
	movq	%rdx, -24(%rbp)
	movq	32(%rbp), %rax
	movq	(%rax), %rax
	movq	32(%rbp), %rdx
	movq	8(%rdx), %r8
	movq	-24(%rbp), %rcx
	movq	-32(%rbp), %rdx
	movq	%r8, %r9
	movq	%rcx, %r8
	movq	%rax, %rcx
	call	_ZNSt8_Rb_treeIiSt4pairIKiSt3mapIiiSt4lessIiESaIS0_IS1_iEEEESt10_Select1stIS8_ES4_SaIS8_EE14_M_insert_nodeEPSt18_Rb_tree_node_baseSE_PSt13_Rb_tree_nodeIS8_E
	movq	%rax, -8(%rbp)
	movq	32(%rbp), %rax
	movq	$0, 8(%rax)
	movq	-8(%rbp), %rax
	addq	$72, %rsp
	popq	%rbx
	popq	%rbp
	ret
	.seh_endproc
	.section	.text$_ZNSt17_Rb_tree_iteratorISt4pairIKiSt3mapIiiSt4lessIiESaIS0_IS1_iEEEEEC1EPSt18_Rb_tree_node_base,"x"
	.linkonce discard
	.align 2
	.globl	_ZNSt17_Rb_tree_iteratorISt4pairIKiSt3mapIiiSt4lessIiESaIS0_IS1_iEEEEEC1EPSt18_Rb_tree_node_base
	.def	_ZNSt17_Rb_tree_iteratorISt4pairIKiSt3mapIiiSt4lessIiESaIS0_IS1_iEEEEEC1EPSt18_Rb_tree_node_base;	.scl	2;	.type	32;	.endef
	.seh_proc	_ZNSt17_Rb_tree_iteratorISt4pairIKiSt3mapIiiSt4lessIiESaIS0_IS1_iEEEEEC1EPSt18_Rb_tree_node_base
_ZNSt17_Rb_tree_iteratorISt4pairIKiSt3mapIiiSt4lessIiESaIS0_IS1_iEEEEEC1EPSt18_Rb_tree_node_base:
.LFB11256:
	pushq	%rbp
	.seh_pushreg	%rbp
	movq	%rsp, %rbp
	.seh_setframe	%rbp, 0
	.seh_endprologue
	movq	%rcx, 16(%rbp)
	movq	%rdx, 24(%rbp)
	movq	16(%rbp), %rax
	movq	24(%rbp), %rdx
	movq	%rdx, (%rax)
	nop
	popq	%rbp
	ret
	.seh_endproc
	.section	.text$_ZNSt8_Rb_treeIiSt4pairIKiiESt10_Select1stIS2_ESt4lessIiESaIS2_EE11lower_boundERS1_,"x"
	.linkonce discard
	.align 2
	.globl	_ZNSt8_Rb_treeIiSt4pairIKiiESt10_Select1stIS2_ESt4lessIiESaIS2_EE11lower_boundERS1_
	.def	_ZNSt8_Rb_treeIiSt4pairIKiiESt10_Select1stIS2_ESt4lessIiESaIS2_EE11lower_boundERS1_;	.scl	2;	.type	32;	.endef
	.seh_proc	_ZNSt8_Rb_treeIiSt4pairIKiiESt10_Select1stIS2_ESt4lessIiESaIS2_EE11lower_boundERS1_
_ZNSt8_Rb_treeIiSt4pairIKiiESt10_Select1stIS2_ESt4lessIiESaIS2_EE11lower_boundERS1_:
.LFB11257:
	pushq	%rbp
	.seh_pushreg	%rbp
	pushq	%rbx
	.seh_pushreg	%rbx
	subq	$40, %rsp
	.seh_stackalloc	40
	leaq	32(%rsp), %rbp
	.seh_setframe	%rbp, 32
	.seh_endprologue
	movq	%rcx, 32(%rbp)
	movq	%rdx, 40(%rbp)
	movq	32(%rbp), %rax
	movq	%rax, %rcx
	call	_ZNSt8_Rb_treeIiSt4pairIKiiESt10_Select1stIS2_ESt4lessIiESaIS2_EE6_M_endEv
	movq	%rax, %rbx
	movq	32(%rbp), %rax
	movq	%rax, %rcx
	call	_ZNSt8_Rb_treeIiSt4pairIKiiESt10_Select1stIS2_ESt4lessIiESaIS2_EE8_M_beginEv
	movq	%rax, %rdx
	movq	40(%rbp), %rcx
	movq	32(%rbp), %rax
	movq	%rcx, %r9
	movq	%rbx, %r8
	movq	%rax, %rcx
	call	_ZNSt8_Rb_treeIiSt4pairIKiiESt10_Select1stIS2_ESt4lessIiESaIS2_EE14_M_lower_boundEPSt13_Rb_tree_nodeIS2_EPSt18_Rb_tree_node_baseRS1_
	addq	$40, %rsp
	popq	%rbx
	popq	%rbp
	ret
	.seh_endproc
	.section	.text$_ZNSt8_Rb_treeIiSt4pairIKiiESt10_Select1stIS2_ESt4lessIiESaIS2_EE3endEv,"x"
	.linkonce discard
	.align 2
	.globl	_ZNSt8_Rb_treeIiSt4pairIKiiESt10_Select1stIS2_ESt4lessIiESaIS2_EE3endEv
	.def	_ZNSt8_Rb_treeIiSt4pairIKiiESt10_Select1stIS2_ESt4lessIiESaIS2_EE3endEv;	.scl	2;	.type	32;	.endef
	.seh_proc	_ZNSt8_Rb_treeIiSt4pairIKiiESt10_Select1stIS2_ESt4lessIiESaIS2_EE3endEv
_ZNSt8_Rb_treeIiSt4pairIKiiESt10_Select1stIS2_ESt4lessIiESaIS2_EE3endEv:
.LFB11258:
	pushq	%rbp
	.seh_pushreg	%rbp
	movq	%rsp, %rbp
	.seh_setframe	%rbp, 0
	subq	$48, %rsp
	.seh_stackalloc	48
	.seh_endprologue
	movq	%rcx, 16(%rbp)
	movq	16(%rbp), %rax
	leaq	8(%rax), %rdx
	leaq	-8(%rbp), %rax
	movq	%rax, %rcx
	call	_ZNSt17_Rb_tree_iteratorISt4pairIKiiEEC1EPSt18_Rb_tree_node_base
	movq	-8(%rbp), %rax
	addq	$48, %rsp
	popq	%rbp
	ret
	.seh_endproc
	.section	.text$_ZNKSt8_Rb_treeIiSt4pairIKiiESt10_Select1stIS2_ESt4lessIiESaIS2_EE8key_compEv,"x"
	.linkonce discard
	.align 2
	.globl	_ZNKSt8_Rb_treeIiSt4pairIKiiESt10_Select1stIS2_ESt4lessIiESaIS2_EE8key_compEv
	.def	_ZNKSt8_Rb_treeIiSt4pairIKiiESt10_Select1stIS2_ESt4lessIiESaIS2_EE8key_compEv;	.scl	2;	.type	32;	.endef
	.seh_proc	_ZNKSt8_Rb_treeIiSt4pairIKiiESt10_Select1stIS2_ESt4lessIiESaIS2_EE8key_compEv
_ZNKSt8_Rb_treeIiSt4pairIKiiESt10_Select1stIS2_ESt4lessIiESaIS2_EE8key_compEv:
.LFB11259:
	pushq	%rbp
	.seh_pushreg	%rbp
	movq	%rsp, %rbp
	.seh_setframe	%rbp, 0
	.seh_endprologue
	movq	%rcx, 16(%rbp)
	nop
	popq	%rbp
	ret
	.seh_endproc
	.section	.text$_ZNSt13_Rb_tree_nodeISt4pairIKiiEE9_M_valptrEv,"x"
	.linkonce discard
	.align 2
	.globl	_ZNSt13_Rb_tree_nodeISt4pairIKiiEE9_M_valptrEv
	.def	_ZNSt13_Rb_tree_nodeISt4pairIKiiEE9_M_valptrEv;	.scl	2;	.type	32;	.endef
	.seh_proc	_ZNSt13_Rb_tree_nodeISt4pairIKiiEE9_M_valptrEv
_ZNSt13_Rb_tree_nodeISt4pairIKiiEE9_M_valptrEv:
.LFB11260:
	pushq	%rbp
	.seh_pushreg	%rbp
	movq	%rsp, %rbp
	.seh_setframe	%rbp, 0
	subq	$32, %rsp
	.seh_stackalloc	32
	.seh_endprologue
	movq	%rcx, 16(%rbp)
	movq	16(%rbp), %rax
	addq	$32, %rax
	movq	%rax, %rcx
	call	_ZN9__gnu_cxx16__aligned_membufISt4pairIKiiEE6_M_ptrEv
	addq	$32, %rsp
	popq	%rbp
	ret
	.seh_endproc
	.section	.text$_ZNSt8_Rb_treeIiSt4pairIKiiESt10_Select1stIS2_ESt4lessIiESaIS2_EE10_Auto_nodeC1IJRKSt21piecewise_construct_tSt5tupleIJRS1_EESE_IJEEEEERS8_DpOT_,"x"
	.linkonce discard
	.align 2
	.globl	_ZNSt8_Rb_treeIiSt4pairIKiiESt10_Select1stIS2_ESt4lessIiESaIS2_EE10_Auto_nodeC1IJRKSt21piecewise_construct_tSt5tupleIJRS1_EESE_IJEEEEERS8_DpOT_
	.def	_ZNSt8_Rb_treeIiSt4pairIKiiESt10_Select1stIS2_ESt4lessIiESaIS2_EE10_Auto_nodeC1IJRKSt21piecewise_construct_tSt5tupleIJRS1_EESE_IJEEEEERS8_DpOT_;	.scl	2;	.type	32;	.endef
	.seh_proc	_ZNSt8_Rb_treeIiSt4pairIKiiESt10_Select1stIS2_ESt4lessIiESaIS2_EE10_Auto_nodeC1IJRKSt21piecewise_construct_tSt5tupleIJRS1_EESE_IJEEEEERS8_DpOT_
_ZNSt8_Rb_treeIiSt4pairIKiiESt10_Select1stIS2_ESt4lessIiESaIS2_EE10_Auto_nodeC1IJRKSt21piecewise_construct_tSt5tupleIJRS1_EESE_IJEEEEERS8_DpOT_:
.LFB11263:
	pushq	%rbp
	.seh_pushreg	%rbp
	pushq	%rsi
	.seh_pushreg	%rsi
	pushq	%rbx
	.seh_pushreg	%rbx
	subq	$32, %rsp
	.seh_stackalloc	32
	leaq	32(%rsp), %rbp
	.seh_setframe	%rbp, 32
	.seh_endprologue
	movq	%rcx, 32(%rbp)
	movq	%rdx, 40(%rbp)
	movq	%r8, 48(%rbp)
	movq	%r9, 56(%rbp)
	movq	32(%rbp), %rax
	movq	40(%rbp), %rdx
	movq	%rdx, (%rax)
	movq	64(%rbp), %rax
	movq	%rax, %rcx
	call	_ZSt7forwardISt5tupleIJEEEOT_RNSt16remove_referenceIS2_E4typeE
	movq	%rax, %rsi
	movq	56(%rbp), %rax
	movq	%rax, %rcx
	call	_ZSt7forwardISt5tupleIJRKiEEEOT_RNSt16remove_referenceIS4_E4typeE
	movq	%rax, %rbx
	movq	48(%rbp), %rax
	movq	%rax, %rcx
	call	_ZSt7forwardIRKSt21piecewise_construct_tEOT_RNSt16remove_referenceIS3_E4typeE
	movq	%rax, %rdx
	movq	40(%rbp), %rax
	movq	%rsi, %r9
	movq	%rbx, %r8
	movq	%rax, %rcx
	call	_ZNSt8_Rb_treeIiSt4pairIKiiESt10_Select1stIS2_ESt4lessIiESaIS2_EE14_M_create_nodeIJRKSt21piecewise_construct_tSt5tupleIJRS1_EESD_IJEEEEEPSt13_Rb_tree_nodeIS2_EDpOT_
	movq	32(%rbp), %rdx
	movq	%rax, 8(%rdx)
	nop
	addq	$32, %rsp
	popq	%rbx
	popq	%rsi
	popq	%rbp
	ret
	.seh_endproc
	.section	.text$_ZNSt8_Rb_treeIiSt4pairIKiiESt10_Select1stIS2_ESt4lessIiESaIS2_EE10_Auto_nodeD1Ev,"x"
	.linkonce discard
	.align 2
	.globl	_ZNSt8_Rb_treeIiSt4pairIKiiESt10_Select1stIS2_ESt4lessIiESaIS2_EE10_Auto_nodeD1Ev
	.def	_ZNSt8_Rb_treeIiSt4pairIKiiESt10_Select1stIS2_ESt4lessIiESaIS2_EE10_Auto_nodeD1Ev;	.scl	2;	.type	32;	.endef
	.seh_proc	_ZNSt8_Rb_treeIiSt4pairIKiiESt10_Select1stIS2_ESt4lessIiESaIS2_EE10_Auto_nodeD1Ev
_ZNSt8_Rb_treeIiSt4pairIKiiESt10_Select1stIS2_ESt4lessIiESaIS2_EE10_Auto_nodeD1Ev:
.LFB11266:
	pushq	%rbp
	.seh_pushreg	%rbp
	movq	%rsp, %rbp
	.seh_setframe	%rbp, 0
	subq	$32, %rsp
	.seh_stackalloc	32
	.seh_endprologue
	movq	%rcx, 16(%rbp)
	movq	16(%rbp), %rax
	movq	8(%rax), %rax
	testq	%rax, %rax
	je	.L297
	movq	16(%rbp), %rax
	movq	(%rax), %rax
	movq	16(%rbp), %rdx
	movq	8(%rdx), %rdx
	movq	%rax, %rcx
	call	_ZNSt8_Rb_treeIiSt4pairIKiiESt10_Select1stIS2_ESt4lessIiESaIS2_EE12_M_drop_nodeEPSt13_Rb_tree_nodeIS2_E
.L297:
	nop
	addq	$32, %rsp
	popq	%rbp
	ret
	.seh_endproc
	.section	.text$_ZNSt8_Rb_treeIiSt4pairIKiiESt10_Select1stIS2_ESt4lessIiESaIS2_EE29_M_get_insert_hint_unique_posESt23_Rb_tree_const_iteratorIS2_ERS1_,"x"
	.linkonce discard
	.align 2
	.globl	_ZNSt8_Rb_treeIiSt4pairIKiiESt10_Select1stIS2_ESt4lessIiESaIS2_EE29_M_get_insert_hint_unique_posESt23_Rb_tree_const_iteratorIS2_ERS1_
	.def	_ZNSt8_Rb_treeIiSt4pairIKiiESt10_Select1stIS2_ESt4lessIiESaIS2_EE29_M_get_insert_hint_unique_posESt23_Rb_tree_const_iteratorIS2_ERS1_;	.scl	2;	.type	32;	.endef
	.seh_proc	_ZNSt8_Rb_treeIiSt4pairIKiiESt10_Select1stIS2_ESt4lessIiESaIS2_EE29_M_get_insert_hint_unique_posESt23_Rb_tree_const_iteratorIS2_ERS1_
_ZNSt8_Rb_treeIiSt4pairIKiiESt10_Select1stIS2_ESt4lessIiESaIS2_EE29_M_get_insert_hint_unique_posESt23_Rb_tree_const_iteratorIS2_ERS1_:
.LFB11267:
	pushq	%rbp
	.seh_pushreg	%rbp
	pushq	%rbx
	.seh_pushreg	%rbx
	subq	$104, %rsp
	.seh_stackalloc	104
	leaq	96(%rsp), %rbp
	.seh_setframe	%rbp, 96
	.seh_endprologue
	movq	%rcx, 32(%rbp)
	movq	%rdx, 40(%rbp)
	movq	%r8, 48(%rbp)
	movq	%r9, 56(%rbp)
	leaq	48(%rbp), %rax
	movq	%rax, %rcx
	call	_ZNKSt23_Rb_tree_const_iteratorISt4pairIKiiEE13_M_const_castEv
	movq	%rax, -48(%rbp)
	movq	-48(%rbp), %rbx
	movq	40(%rbp), %rax
	movq	%rax, %rcx
	call	_ZNSt8_Rb_treeIiSt4pairIKiiESt10_Select1stIS2_ESt4lessIiESaIS2_EE6_M_endEv
	cmpq	%rax, %rbx
	sete	%al
	testb	%al, %al
	je	.L299
	movq	40(%rbp), %rax
	movq	%rax, %rcx
	call	_ZNKSt8_Rb_treeIiSt4pairIKiiESt10_Select1stIS2_ESt4lessIiESaIS2_EE4sizeEv
	testq	%rax, %rax
	je	.L300
	movq	40(%rbp), %rbx
	movq	40(%rbp), %rax
	movq	%rax, %rcx
	call	_ZNSt8_Rb_treeIiSt4pairIKiiESt10_Select1stIS2_ESt4lessIiESaIS2_EE12_M_rightmostEv
	movq	(%rax), %rax
	movq	%rax, %rcx
	call	_ZNSt8_Rb_treeIiSt4pairIKiiESt10_Select1stIS2_ESt4lessIiESaIS2_EE6_S_keyEPKSt18_Rb_tree_node_base
	movq	56(%rbp), %rdx
	movq	%rdx, %r8
	movq	%rax, %rdx
	movq	%rbx, %rcx
	call	_ZNKSt4lessIiEclERKiS2_
	testb	%al, %al
	je	.L300
	movl	$1, %eax
	jmp	.L301
.L300:
	movl	$0, %eax
.L301:
	testb	%al, %al
	je	.L302
	movq	40(%rbp), %rax
	movq	%rax, %rcx
	call	_ZNSt8_Rb_treeIiSt4pairIKiiESt10_Select1stIS2_ESt4lessIiESaIS2_EE12_M_rightmostEv
	movq	%rax, %rdx
	movq	$0, -40(%rbp)
	leaq	-40(%rbp), %rax
	movq	32(%rbp), %rcx
	movq	%rdx, %r8
	movq	%rax, %rdx
	call	_ZNSt4pairIPSt18_Rb_tree_node_baseS1_EC1IS1_S1_Lb1EEERKS1_S5_
	jmp	.L298
.L302:
	movq	32(%rbp), %rax
	movq	56(%rbp), %rcx
	movq	40(%rbp), %rdx
	movq	%rcx, %r8
	movq	%rax, %rcx
	call	_ZNSt8_Rb_treeIiSt4pairIKiiESt10_Select1stIS2_ESt4lessIiESaIS2_EE24_M_get_insert_unique_posERS1_
	jmp	.L298
.L299:
	movq	40(%rbp), %rbx
	movq	-48(%rbp), %rax
	movq	%rax, %rcx
	call	_ZNSt8_Rb_treeIiSt4pairIKiiESt10_Select1stIS2_ESt4lessIiESaIS2_EE6_S_keyEPKSt18_Rb_tree_node_base
	movq	%rax, %rdx
	movq	56(%rbp), %rax
	movq	%rdx, %r8
	movq	%rax, %rdx
	movq	%rbx, %rcx
	call	_ZNKSt4lessIiEclERKiS2_
	testb	%al, %al
	je	.L304
	movq	-48(%rbp), %rax
	movq	%rax, -56(%rbp)
	movq	-48(%rbp), %rbx
	movq	40(%rbp), %rax
	movq	%rax, %rcx
	call	_ZNSt8_Rb_treeIiSt4pairIKiiESt10_Select1stIS2_ESt4lessIiESaIS2_EE11_M_leftmostEv
	movq	(%rax), %rax
	cmpq	%rax, %rbx
	sete	%al
	testb	%al, %al
	je	.L305
	movq	40(%rbp), %rax
	movq	%rax, %rcx
	call	_ZNSt8_Rb_treeIiSt4pairIKiiESt10_Select1stIS2_ESt4lessIiESaIS2_EE11_M_leftmostEv
	movq	%rax, %rbx
	movq	40(%rbp), %rax
	movq	%rax, %rcx
	call	_ZNSt8_Rb_treeIiSt4pairIKiiESt10_Select1stIS2_ESt4lessIiESaIS2_EE11_M_leftmostEv
	movq	%rax, %rdx
	movq	32(%rbp), %rax
	movq	%rbx, %r8
	movq	%rax, %rcx
	call	_ZNSt4pairIPSt18_Rb_tree_node_baseS1_EC1IRS1_S4_Lb1EEEOT_OT0_
	jmp	.L298
.L305:
	movq	40(%rbp), %rbx
	leaq	-56(%rbp), %rax
	movq	%rax, %rcx
	call	_ZNSt17_Rb_tree_iteratorISt4pairIKiiEEmmEv
	movq	(%rax), %rax
	movq	%rax, %rcx
	call	_ZNSt8_Rb_treeIiSt4pairIKiiESt10_Select1stIS2_ESt4lessIiESaIS2_EE6_S_keyEPKSt18_Rb_tree_node_base
	movq	56(%rbp), %rdx
	movq	%rdx, %r8
	movq	%rax, %rdx
	movq	%rbx, %rcx
	call	_ZNKSt4lessIiEclERKiS2_
	testb	%al, %al
	je	.L307
	movq	-56(%rbp), %rax
	movq	%rax, %rcx
	call	_ZNSt8_Rb_treeIiSt4pairIKiiESt10_Select1stIS2_ESt4lessIiESaIS2_EE8_S_rightEPSt18_Rb_tree_node_base
	testq	%rax, %rax
	sete	%al
	testb	%al, %al
	je	.L308
	movq	$0, -32(%rbp)
	leaq	-56(%rbp), %rdx
	leaq	-32(%rbp), %rax
	movq	32(%rbp), %rcx
	movq	%rdx, %r8
	movq	%rax, %rdx
	call	_ZNSt4pairIPSt18_Rb_tree_node_baseS1_EC1IS1_S1_Lb1EEERKS1_S5_
	jmp	.L298
.L308:
	leaq	-48(%rbp), %rdx
	leaq	-48(%rbp), %rax
	movq	32(%rbp), %rcx
	movq	%rdx, %r8
	movq	%rax, %rdx
	call	_ZNSt4pairIPSt18_Rb_tree_node_baseS1_EC1IRS1_S4_Lb1EEEOT_OT0_
	jmp	.L298
.L307:
	movq	32(%rbp), %rax
	movq	56(%rbp), %rcx
	movq	40(%rbp), %rdx
	movq	%rcx, %r8
	movq	%rax, %rcx
	call	_ZNSt8_Rb_treeIiSt4pairIKiiESt10_Select1stIS2_ESt4lessIiESaIS2_EE24_M_get_insert_unique_posERS1_
	jmp	.L298
.L304:
	movq	40(%rbp), %rbx
	movq	-48(%rbp), %rax
	movq	%rax, %rcx
	call	_ZNSt8_Rb_treeIiSt4pairIKiiESt10_Select1stIS2_ESt4lessIiESaIS2_EE6_S_keyEPKSt18_Rb_tree_node_base
	movq	56(%rbp), %rdx
	movq	%rdx, %r8
	movq	%rax, %rdx
	movq	%rbx, %rcx
	call	_ZNKSt4lessIiEclERKiS2_
	testb	%al, %al
	je	.L309
	movq	-48(%rbp), %rax
	movq	%rax, -64(%rbp)
	movq	-48(%rbp), %rbx
	movq	40(%rbp), %rax
	movq	%rax, %rcx
	call	_ZNSt8_Rb_treeIiSt4pairIKiiESt10_Select1stIS2_ESt4lessIiESaIS2_EE12_M_rightmostEv
	movq	(%rax), %rax
	cmpq	%rax, %rbx
	sete	%al
	testb	%al, %al
	je	.L310
	movq	40(%rbp), %rax
	movq	%rax, %rcx
	call	_ZNSt8_Rb_treeIiSt4pairIKiiESt10_Select1stIS2_ESt4lessIiESaIS2_EE12_M_rightmostEv
	movq	%rax, %rdx
	movq	$0, -24(%rbp)
	leaq	-24(%rbp), %rax
	movq	32(%rbp), %rcx
	movq	%rdx, %r8
	movq	%rax, %rdx
	call	_ZNSt4pairIPSt18_Rb_tree_node_baseS1_EC1IS1_S1_Lb1EEERKS1_S5_
	jmp	.L298
.L310:
	movq	40(%rbp), %rbx
	leaq	-64(%rbp), %rax
	movq	%rax, %rcx
	call	_ZNSt17_Rb_tree_iteratorISt4pairIKiiEEppEv
	movq	(%rax), %rax
	movq	%rax, %rcx
	call	_ZNSt8_Rb_treeIiSt4pairIKiiESt10_Select1stIS2_ESt4lessIiESaIS2_EE6_S_keyEPKSt18_Rb_tree_node_base
	movq	%rax, %rdx
	movq	56(%rbp), %rax
	movq	%rdx, %r8
	movq	%rax, %rdx
	movq	%rbx, %rcx
	call	_ZNKSt4lessIiEclERKiS2_
	testb	%al, %al
	je	.L312
	movq	-48(%rbp), %rax
	movq	%rax, %rcx
	call	_ZNSt8_Rb_treeIiSt4pairIKiiESt10_Select1stIS2_ESt4lessIiESaIS2_EE8_S_rightEPSt18_Rb_tree_node_base
	testq	%rax, %rax
	sete	%al
	testb	%al, %al
	je	.L313
	movq	$0, -16(%rbp)
	leaq	-48(%rbp), %rdx
	leaq	-16(%rbp), %rax
	movq	32(%rbp), %rcx
	movq	%rdx, %r8
	movq	%rax, %rdx
	call	_ZNSt4pairIPSt18_Rb_tree_node_baseS1_EC1IS1_S1_Lb1EEERKS1_S5_
	jmp	.L298
.L313:
	leaq	-64(%rbp), %rdx
	leaq	-64(%rbp), %rax
	movq	32(%rbp), %rcx
	movq	%rdx, %r8
	movq	%rax, %rdx
	call	_ZNSt4pairIPSt18_Rb_tree_node_baseS1_EC1IRS1_S4_Lb1EEEOT_OT0_
	jmp	.L298
.L312:
	movq	32(%rbp), %rax
	movq	56(%rbp), %rcx
	movq	40(%rbp), %rdx
	movq	%rcx, %r8
	movq	%rax, %rcx
	call	_ZNSt8_Rb_treeIiSt4pairIKiiESt10_Select1stIS2_ESt4lessIiESaIS2_EE24_M_get_insert_unique_posERS1_
	jmp	.L298
.L309:
	movq	$0, -8(%rbp)
	leaq	-8(%rbp), %rdx
	leaq	-48(%rbp), %rax
	movq	32(%rbp), %rcx
	movq	%rdx, %r8
	movq	%rax, %rdx
	call	_ZNSt4pairIPSt18_Rb_tree_node_baseS1_EC1IS1_S1_Lb1EEERKS1_S5_
.L298:
	movq	32(%rbp), %rax
	addq	$104, %rsp
	popq	%rbx
	popq	%rbp
	ret
	.seh_endproc
	.section	.text$_ZNKSt8_Rb_treeIiSt4pairIKiiESt10_Select1stIS2_ESt4lessIiESaIS2_EE10_Auto_node6_M_keyEv,"x"
	.linkonce discard
	.align 2
	.globl	_ZNKSt8_Rb_treeIiSt4pairIKiiESt10_Select1stIS2_ESt4lessIiESaIS2_EE10_Auto_node6_M_keyEv
	.def	_ZNKSt8_Rb_treeIiSt4pairIKiiESt10_Select1stIS2_ESt4lessIiESaIS2_EE10_Auto_node6_M_keyEv;	.scl	2;	.type	32;	.endef
	.seh_proc	_ZNKSt8_Rb_treeIiSt4pairIKiiESt10_Select1stIS2_ESt4lessIiESaIS2_EE10_Auto_node6_M_keyEv
_ZNKSt8_Rb_treeIiSt4pairIKiiESt10_Select1stIS2_ESt4lessIiESaIS2_EE10_Auto_node6_M_keyEv:
.LFB11268:
	pushq	%rbp
	.seh_pushreg	%rbp
	movq	%rsp, %rbp
	.seh_setframe	%rbp, 0
	subq	$32, %rsp
	.seh_stackalloc	32
	.seh_endprologue
	movq	%rcx, 16(%rbp)
	movq	16(%rbp), %rax
	movq	8(%rax), %rax
	movq	%rax, %rcx
	call	_ZNSt8_Rb_treeIiSt4pairIKiiESt10_Select1stIS2_ESt4lessIiESaIS2_EE6_S_keyEPKSt13_Rb_tree_nodeIS2_E
	addq	$32, %rsp
	popq	%rbp
	ret
	.seh_endproc
	.section	.text$_ZNSt8_Rb_treeIiSt4pairIKiiESt10_Select1stIS2_ESt4lessIiESaIS2_EE10_Auto_node9_M_insertES0_IPSt18_Rb_tree_node_baseSB_E,"x"
	.linkonce discard
	.align 2
	.globl	_ZNSt8_Rb_treeIiSt4pairIKiiESt10_Select1stIS2_ESt4lessIiESaIS2_EE10_Auto_node9_M_insertES0_IPSt18_Rb_tree_node_baseSB_E
	.def	_ZNSt8_Rb_treeIiSt4pairIKiiESt10_Select1stIS2_ESt4lessIiESaIS2_EE10_Auto_node9_M_insertES0_IPSt18_Rb_tree_node_baseSB_E;	.scl	2;	.type	32;	.endef
	.seh_proc	_ZNSt8_Rb_treeIiSt4pairIKiiESt10_Select1stIS2_ESt4lessIiESaIS2_EE10_Auto_node9_M_insertES0_IPSt18_Rb_tree_node_baseSB_E
_ZNSt8_Rb_treeIiSt4pairIKiiESt10_Select1stIS2_ESt4lessIiESaIS2_EE10_Auto_node9_M_insertES0_IPSt18_Rb_tree_node_baseSB_E:
.LFB11269:
	pushq	%rbp
	.seh_pushreg	%rbp
	pushq	%rbx
	.seh_pushreg	%rbx
	subq	$72, %rsp
	.seh_stackalloc	72
	leaq	64(%rsp), %rbp
	.seh_setframe	%rbp, 64
	.seh_endprologue
	movq	%rcx, 32(%rbp)
	movq	%rdx, %rbx
	movq	(%rbx), %rax
	movq	8(%rbx), %rdx
	movq	%rax, -32(%rbp)
	movq	%rdx, -24(%rbp)
	movq	32(%rbp), %rax
	movq	(%rax), %rax
	movq	32(%rbp), %rdx
	movq	8(%rdx), %r8
	movq	-24(%rbp), %rcx
	movq	-32(%rbp), %rdx
	movq	%r8, %r9
	movq	%rcx, %r8
	movq	%rax, %rcx
	call	_ZNSt8_Rb_treeIiSt4pairIKiiESt10_Select1stIS2_ESt4lessIiESaIS2_EE14_M_insert_nodeEPSt18_Rb_tree_node_baseSA_PSt13_Rb_tree_nodeIS2_E
	movq	%rax, -8(%rbp)
	movq	32(%rbp), %rax
	movq	$0, 8(%rax)
	movq	-8(%rbp), %rax
	addq	$72, %rsp
	popq	%rbx
	popq	%rbp
	ret
	.seh_endproc
	.section	.text$_ZNSt17_Rb_tree_iteratorISt4pairIKiiEEC1EPSt18_Rb_tree_node_base,"x"
	.linkonce discard
	.align 2
	.globl	_ZNSt17_Rb_tree_iteratorISt4pairIKiiEEC1EPSt18_Rb_tree_node_base
	.def	_ZNSt17_Rb_tree_iteratorISt4pairIKiiEEC1EPSt18_Rb_tree_node_base;	.scl	2;	.type	32;	.endef
	.seh_proc	_ZNSt17_Rb_tree_iteratorISt4pairIKiiEEC1EPSt18_Rb_tree_node_base
_ZNSt17_Rb_tree_iteratorISt4pairIKiiEEC1EPSt18_Rb_tree_node_base:
.LFB11272:
	pushq	%rbp
	.seh_pushreg	%rbp
	movq	%rsp, %rbp
	.seh_setframe	%rbp, 0
	.seh_endprologue
	movq	%rcx, 16(%rbp)
	movq	%rdx, 24(%rbp)
	movq	16(%rbp), %rax
	movq	24(%rbp), %rdx
	movq	%rdx, (%rax)
	nop
	popq	%rbp
	ret
	.seh_endproc
	.section	.text$_ZNSt12_Destroy_auxILb1EE9__destroyIPiEEvT_S3_,"x"
	.linkonce discard
	.globl	_ZNSt12_Destroy_auxILb1EE9__destroyIPiEEvT_S3_
	.def	_ZNSt12_Destroy_auxILb1EE9__destroyIPiEEvT_S3_;	.scl	2;	.type	32;	.endef
	.seh_proc	_ZNSt12_Destroy_auxILb1EE9__destroyIPiEEvT_S3_
_ZNSt12_Destroy_auxILb1EE9__destroyIPiEEvT_S3_:
.LFB11369:
	pushq	%rbp
	.seh_pushreg	%rbp
	movq	%rsp, %rbp
	.seh_setframe	%rbp, 0
	.seh_endprologue
	movq	%rcx, 16(%rbp)
	movq	%rdx, 24(%rbp)
	nop
	popq	%rbp
	ret
	.seh_endproc
	.section	.text$_ZNSt15__new_allocatorIiE10deallocateEPiy,"x"
	.linkonce discard
	.align 2
	.globl	_ZNSt15__new_allocatorIiE10deallocateEPiy
	.def	_ZNSt15__new_allocatorIiE10deallocateEPiy;	.scl	2;	.type	32;	.endef
	.seh_proc	_ZNSt15__new_allocatorIiE10deallocateEPiy
_ZNSt15__new_allocatorIiE10deallocateEPiy:
.LFB11370:
	pushq	%rbp
	.seh_pushreg	%rbp
	movq	%rsp, %rbp
	.seh_setframe	%rbp, 0
	subq	$32, %rsp
	.seh_stackalloc	32
	.seh_endprologue
	movq	%rcx, 16(%rbp)
	movq	%rdx, 24(%rbp)
	movq	%r8, 32(%rbp)
	movq	32(%rbp), %rax
	leaq	0(,%rax,4), %rdx
	movq	24(%rbp), %rax
	movq	%rax, %rcx
	call	_ZdlPvy
	nop
	addq	$32, %rsp
	popq	%rbp
	ret
	.seh_endproc
	.section	.text$_ZNSt8_Rb_treeIiSt4pairIKiSt3mapIiiSt4lessIiESaIS0_IS1_iEEEESt10_Select1stIS8_ES4_SaIS8_EE15_M_destroy_nodeEPSt13_Rb_tree_nodeIS8_E,"x"
	.linkonce discard
	.align 2
	.globl	_ZNSt8_Rb_treeIiSt4pairIKiSt3mapIiiSt4lessIiESaIS0_IS1_iEEEESt10_Select1stIS8_ES4_SaIS8_EE15_M_destroy_nodeEPSt13_Rb_tree_nodeIS8_E
	.def	_ZNSt8_Rb_treeIiSt4pairIKiSt3mapIiiSt4lessIiESaIS0_IS1_iEEEESt10_Select1stIS8_ES4_SaIS8_EE15_M_destroy_nodeEPSt13_Rb_tree_nodeIS8_E;	.scl	2;	.type	32;	.endef
	.seh_proc	_ZNSt8_Rb_treeIiSt4pairIKiSt3mapIiiSt4lessIiESaIS0_IS1_iEEEESt10_Select1stIS8_ES4_SaIS8_EE15_M_destroy_nodeEPSt13_Rb_tree_nodeIS8_E
_ZNSt8_Rb_treeIiSt4pairIKiSt3mapIiiSt4lessIiESaIS0_IS1_iEEEESt10_Select1stIS8_ES4_SaIS8_EE15_M_destroy_nodeEPSt13_Rb_tree_nodeIS8_E:
.LFB11371:
	pushq	%rbp
	.seh_pushreg	%rbp
	pushq	%rbx
	.seh_pushreg	%rbx
	subq	$40, %rsp
	.seh_stackalloc	40
	leaq	32(%rsp), %rbp
	.seh_setframe	%rbp, 32
	.seh_endprologue
	movq	%rcx, 32(%rbp)
	movq	%rdx, 40(%rbp)
	movq	40(%rbp), %rax
	movq	%rax, %rcx
	call	_ZNSt13_Rb_tree_nodeISt4pairIKiSt3mapIiiSt4lessIiESaIS0_IS1_iEEEEE9_M_valptrEv
	movq	%rax, %rbx
	movq	32(%rbp), %rax
	movq	%rax, %rcx
	call	_ZNSt8_Rb_treeIiSt4pairIKiSt3mapIiiSt4lessIiESaIS0_IS1_iEEEESt10_Select1stIS8_ES4_SaIS8_EE21_M_get_Node_allocatorEv
	movq	%rbx, %rdx
	movq	%rax, %rcx
	call	_ZNSt16allocator_traitsISaISt13_Rb_tree_nodeISt4pairIKiSt3mapIiiSt4lessIiESaIS1_IS2_iEEEEEEE7destroyIS9_EEvRSB_PT_
	nop
	addq	$40, %rsp
	popq	%rbx
	popq	%rbp
	ret
	.seh_endproc
	.section	.text$_ZNSt8_Rb_treeIiSt4pairIKiSt3mapIiiSt4lessIiESaIS0_IS1_iEEEESt10_Select1stIS8_ES4_SaIS8_EE11_M_put_nodeEPSt13_Rb_tree_nodeIS8_E,"x"
	.linkonce discard
	.align 2
	.globl	_ZNSt8_Rb_treeIiSt4pairIKiSt3mapIiiSt4lessIiESaIS0_IS1_iEEEESt10_Select1stIS8_ES4_SaIS8_EE11_M_put_nodeEPSt13_Rb_tree_nodeIS8_E
	.def	_ZNSt8_Rb_treeIiSt4pairIKiSt3mapIiiSt4lessIiESaIS0_IS1_iEEEESt10_Select1stIS8_ES4_SaIS8_EE11_M_put_nodeEPSt13_Rb_tree_nodeIS8_E;	.scl	2;	.type	32;	.endef
	.seh_proc	_ZNSt8_Rb_treeIiSt4pairIKiSt3mapIiiSt4lessIiESaIS0_IS1_iEEEESt10_Select1stIS8_ES4_SaIS8_EE11_M_put_nodeEPSt13_Rb_tree_nodeIS8_E
_ZNSt8_Rb_treeIiSt4pairIKiSt3mapIiiSt4lessIiESaIS0_IS1_iEEEESt10_Select1stIS8_ES4_SaIS8_EE11_M_put_nodeEPSt13_Rb_tree_nodeIS8_E:
.LFB11373:
	pushq	%rbp
	.seh_pushreg	%rbp
	movq	%rsp, %rbp
	.seh_setframe	%rbp, 0
	subq	$32, %rsp
	.seh_stackalloc	32
	.seh_endprologue
	movq	%rcx, 16(%rbp)
	movq	%rdx, 24(%rbp)
	movq	16(%rbp), %rax
	movq	%rax, %rcx
	call	_ZNSt8_Rb_treeIiSt4pairIKiSt3mapIiiSt4lessIiESaIS0_IS1_iEEEESt10_Select1stIS8_ES4_SaIS8_EE21_M_get_Node_allocatorEv
	movq	%rax, %rcx
	movq	24(%rbp), %rax
	movl	$1, %r8d
	movq	%rax, %rdx
	call	_ZNSt16allocator_traitsISaISt13_Rb_tree_nodeISt4pairIKiSt3mapIiiSt4lessIiESaIS1_IS2_iEEEEEEE10deallocateERSB_PSA_y
	nop
	addq	$32, %rsp
	popq	%rbp
	ret
	.seh_handler	__gxx_personality_seh0, @unwind, @except
	.seh_handlerdata
.LLSDA11373:
	.byte	0xff
	.byte	0xff
	.byte	0x1
	.uleb128 .LLSDACSE11373-.LLSDACSB11373
.LLSDACSB11373:
.LLSDACSE11373:
	.section	.text$_ZNSt8_Rb_treeIiSt4pairIKiSt3mapIiiSt4lessIiESaIS0_IS1_iEEEESt10_Select1stIS8_ES4_SaIS8_EE11_M_put_nodeEPSt13_Rb_tree_nodeIS8_E,"x"
	.linkonce discard
	.seh_endproc
	.section	.text$_ZNKSt6vectorIiSaIiEE8max_sizeEv,"x"
	.linkonce discard
	.align 2
	.globl	_ZNKSt6vectorIiSaIiEE8max_sizeEv
	.def	_ZNKSt6vectorIiSaIiEE8max_sizeEv;	.scl	2;	.type	32;	.endef
	.seh_proc	_ZNKSt6vectorIiSaIiEE8max_sizeEv
_ZNKSt6vectorIiSaIiEE8max_sizeEv:
.LFB11374:
	pushq	%rbp
	.seh_pushreg	%rbp
	movq	%rsp, %rbp
	.seh_setframe	%rbp, 0
	subq	$32, %rsp
	.seh_stackalloc	32
	.seh_endprologue
	movq	%rcx, 16(%rbp)
	movq	16(%rbp), %rax
	movq	%rax, %rcx
	call	_ZNKSt12_Vector_baseIiSaIiEE19_M_get_Tp_allocatorEv
	movq	%rax, %rcx
	call	_ZNSt6vectorIiSaIiEE11_S_max_sizeERKS0_
	addq	$32, %rsp
	popq	%rbp
	ret
	.seh_endproc
	.section	.text$_ZNSt16allocator_traitsISaIiEE8allocateERS0_y,"x"
	.linkonce discard
	.globl	_ZNSt16allocator_traitsISaIiEE8allocateERS0_y
	.def	_ZNSt16allocator_traitsISaIiEE8allocateERS0_y;	.scl	2;	.type	32;	.endef
	.seh_proc	_ZNSt16allocator_traitsISaIiEE8allocateERS0_y
_ZNSt16allocator_traitsISaIiEE8allocateERS0_y:
.LFB11375:
	pushq	%rbp
	.seh_pushreg	%rbp
	movq	%rsp, %rbp
	.seh_setframe	%rbp, 0
	subq	$32, %rsp
	.seh_stackalloc	32
	.seh_endprologue
	movq	%rcx, 16(%rbp)
	movq	%rdx, 24(%rbp)
	movq	24(%rbp), %rdx
	movq	16(%rbp), %rax
	movl	$0, %r8d
	movq	%rax, %rcx
	call	_ZNSt15__new_allocatorIiE8allocateEyPKv
	addq	$32, %rsp
	popq	%rbp
	ret
	.seh_endproc
	.section	.text$_ZSt12__relocate_aIPiS0_SaIiEET0_T_S3_S2_RT1_,"x"
	.linkonce discard
	.globl	_ZSt12__relocate_aIPiS0_SaIiEET0_T_S3_S2_RT1_
	.def	_ZSt12__relocate_aIPiS0_SaIiEET0_T_S3_S2_RT1_;	.scl	2;	.type	32;	.endef
	.seh_proc	_ZSt12__relocate_aIPiS0_SaIiEET0_T_S3_S2_RT1_
_ZSt12__relocate_aIPiS0_SaIiEET0_T_S3_S2_RT1_:
.LFB11376:
	pushq	%rbp
	.seh_pushreg	%rbp
	pushq	%rsi
	.seh_pushreg	%rsi
	pushq	%rbx
	.seh_pushreg	%rbx
	subq	$32, %rsp
	.seh_stackalloc	32
	leaq	32(%rsp), %rbp
	.seh_setframe	%rbp, 32
	.seh_endprologue
	movq	%rcx, 32(%rbp)
	movq	%rdx, 40(%rbp)
	movq	%r8, 48(%rbp)
	movq	%r9, 56(%rbp)
	movq	48(%rbp), %rax
	movq	%rax, %rcx
	call	_ZSt12__niter_baseIPiET_S1_
	movq	%rax, %rsi
	movq	40(%rbp), %rax
	movq	%rax, %rcx
	call	_ZSt12__niter_baseIPiET_S1_
	movq	%rax, %rbx
	movq	32(%rbp), %rax
	movq	%rax, %rcx
	call	_ZSt12__niter_baseIPiET_S1_
	movq	56(%rbp), %rdx
	movq	%rdx, %r9
	movq	%rsi, %r8
	movq	%rbx, %rdx
	movq	%rax, %rcx
	call	_ZSt14__relocate_a_1IiiENSt9enable_ifIXsrSt24__is_bitwise_relocatableIT_vE5valueEPS2_E4typeES4_S4_S4_RSaIT0_E
	addq	$32, %rsp
	popq	%rbx
	popq	%rsi
	popq	%rbp
	ret
	.seh_endproc
	.text
	.def	_ZSt14__partial_sortIP4nodeN9__gnu_cxx5__ops15_Iter_comp_iterIZ4mainEUlS0_S0_E_EEEvT_S7_S7_T0_;	.scl	3;	.type	32;	.endef
	.seh_proc	_ZSt14__partial_sortIP4nodeN9__gnu_cxx5__ops15_Iter_comp_iterIZ4mainEUlS0_S0_E_EEEvT_S7_S7_T0_
_ZSt14__partial_sortIP4nodeN9__gnu_cxx5__ops15_Iter_comp_iterIZ4mainEUlS0_S0_E_EEEvT_S7_S7_T0_:
.LFB11378:
	pushq	%rbp
	.seh_pushreg	%rbp
	movq	%rsp, %rbp
	.seh_setframe	%rbp, 0
	subq	$32, %rsp
	.seh_stackalloc	32
	.seh_endprologue
	movq	%rcx, 16(%rbp)
	movq	%rdx, 24(%rbp)
	movq	%r8, 32(%rbp)
	movzbl	40(%rbp), %ecx
	movq	32(%rbp), %r8
	movq	24(%rbp), %rdx
	movq	16(%rbp), %rax
	movl	%ecx, %r9d
	movq	%rax, %rcx
	call	_ZSt13__heap_selectIP4nodeN9__gnu_cxx5__ops15_Iter_comp_iterIZ4mainEUlS0_S0_E_EEEvT_S7_S7_T0_
	leaq	40(%rbp), %rcx
	movq	24(%rbp), %rdx
	movq	16(%rbp), %rax
	movq	%rcx, %r8
	movq	%rax, %rcx
	call	_ZSt11__sort_heapIP4nodeN9__gnu_cxx5__ops15_Iter_comp_iterIZ4mainEUlS0_S0_E_EEEvT_S7_RT0_
	nop
	addq	$32, %rsp
	popq	%rbp
	ret
	.seh_endproc
	.def	_ZSt27__unguarded_partition_pivotIP4nodeN9__gnu_cxx5__ops15_Iter_comp_iterIZ4mainEUlS0_S0_E_EEET_S7_S7_T0_;	.scl	3;	.type	32;	.endef
	.seh_proc	_ZSt27__unguarded_partition_pivotIP4nodeN9__gnu_cxx5__ops15_Iter_comp_iterIZ4mainEUlS0_S0_E_EEET_S7_S7_T0_
_ZSt27__unguarded_partition_pivotIP4nodeN9__gnu_cxx5__ops15_Iter_comp_iterIZ4mainEUlS0_S0_E_EEET_S7_S7_T0_:
.LFB11379:
	pushq	%rbp
	.seh_pushreg	%rbp
	movq	%rsp, %rbp
	.seh_setframe	%rbp, 0
	subq	$48, %rsp
	.seh_stackalloc	48
	.seh_endprologue
	movq	%rcx, 16(%rbp)
	movq	%rdx, 24(%rbp)
	movq	24(%rbp), %rax
	subq	16(%rbp), %rax
	sarq	$3, %rax
	movq	%rax, %rdx
	movq	%rdx, %rax
	shrq	$63, %rax
	addq	%rdx, %rax
	sarq	%rax
	leaq	0(,%rax,8), %rdx
	movq	16(%rbp), %rax
	addq	%rdx, %rax
	movq	%rax, -8(%rbp)
	movq	24(%rbp), %rax
	leaq	-8(%rax), %r8
	movq	16(%rbp), %rax
	leaq	8(%rax), %rdx
	movq	-8(%rbp), %rcx
	movq	16(%rbp), %rax
	movq	%r8, %r9
	movq	%rcx, %r8
	movq	%rax, %rcx
	call	_ZSt22__move_median_to_firstIP4nodeN9__gnu_cxx5__ops15_Iter_comp_iterIZ4mainEUlS0_S0_E_EEEvT_S7_S7_S7_T0_
	movq	16(%rbp), %rax
	addq	$8, %rax
	movzbl	32(%rbp), %ecx
	movq	16(%rbp), %r8
	movq	24(%rbp), %rdx
	movl	%ecx, %r9d
	movq	%rax, %rcx
	call	_ZSt21__unguarded_partitionIP4nodeN9__gnu_cxx5__ops15_Iter_comp_iterIZ4mainEUlS0_S0_E_EEET_S7_S7_S7_T0_
	addq	$48, %rsp
	popq	%rbp
	ret
	.seh_endproc
	.def	_ZSt16__insertion_sortIP4nodeN9__gnu_cxx5__ops15_Iter_comp_iterIZ4mainEUlS0_S0_E_EEEvT_S7_T0_;	.scl	3;	.type	32;	.endef
	.seh_proc	_ZSt16__insertion_sortIP4nodeN9__gnu_cxx5__ops15_Iter_comp_iterIZ4mainEUlS0_S0_E_EEEvT_S7_T0_
_ZSt16__insertion_sortIP4nodeN9__gnu_cxx5__ops15_Iter_comp_iterIZ4mainEUlS0_S0_E_EEEvT_S7_T0_:
.LFB11380:
	pushq	%rbp
	.seh_pushreg	%rbp
	pushq	%rbx
	.seh_pushreg	%rbx
	subq	$56, %rsp
	.seh_stackalloc	56
	leaq	48(%rsp), %rbp
	.seh_setframe	%rbp, 48
	.seh_endprologue
	movq	%rcx, 32(%rbp)
	movq	%rdx, 40(%rbp)
	movq	32(%rbp), %rax
	cmpq	40(%rbp), %rax
	je	.L341
	movq	32(%rbp), %rax
	addq	$8, %rax
	movq	%rax, -8(%rbp)
	jmp	.L337
.L340:
	movq	32(%rbp), %rcx
	movq	-8(%rbp), %rdx
	leaq	48(%rbp), %rax
	movq	%rcx, %r8
	movq	%rax, %rcx
	call	_ZN9__gnu_cxx5__ops15_Iter_comp_iterIZ4mainEUl4nodeS2_E_EclIPS2_S6_EEbT_T0_
	testb	%al, %al
	je	.L338
	movq	-8(%rbp), %rax
	movq	%rax, %rcx
	call	_ZSt4moveIR4nodeEONSt16remove_referenceIT_E4typeEOS3_
	movq	(%rax), %rax
	movq	%rax, -16(%rbp)
	movq	-8(%rbp), %rax
	leaq	8(%rax), %rcx
	movq	-8(%rbp), %rdx
	movq	32(%rbp), %rax
	movq	%rcx, %r8
	movq	%rax, %rcx
	call	_ZSt13move_backwardIP4nodeS1_ET0_T_S3_S2_
	leaq	-16(%rbp), %rax
	movq	%rax, %rcx
	call	_ZSt4moveIR4nodeEONSt16remove_referenceIT_E4typeEOS3_
	movq	32(%rbp), %rdx
	movq	(%rax), %rax
	movq	%rax, (%rdx)
	jmp	.L339
.L338:
	movzbl	48(%rbp), %eax
	movl	%eax, %ecx
	call	_ZN9__gnu_cxx5__ops15__val_comp_iterIZ4mainEUl4nodeS2_E_EENS0_14_Val_comp_iterIT_EENS0_15_Iter_comp_iterIS5_EE
	movq	-8(%rbp), %rax
	movl	%ebx, %edx
	movq	%rax, %rcx
	call	_ZSt25__unguarded_linear_insertIP4nodeN9__gnu_cxx5__ops14_Val_comp_iterIZ4mainEUlS0_S0_E_EEEvT_T0_
.L339:
	addq	$8, -8(%rbp)
.L337:
	movq	-8(%rbp), %rax
	cmpq	40(%rbp), %rax
	jne	.L340
	jmp	.L334
.L341:
	nop
.L334:
	addq	$56, %rsp
	popq	%rbx
	popq	%rbp
	ret
	.seh_endproc
	.def	_ZSt26__unguarded_insertion_sortIP4nodeN9__gnu_cxx5__ops15_Iter_comp_iterIZ4mainEUlS0_S0_E_EEEvT_S7_T0_;	.scl	3;	.type	32;	.endef
	.seh_proc	_ZSt26__unguarded_insertion_sortIP4nodeN9__gnu_cxx5__ops15_Iter_comp_iterIZ4mainEUlS0_S0_E_EEEvT_S7_T0_
_ZSt26__unguarded_insertion_sortIP4nodeN9__gnu_cxx5__ops15_Iter_comp_iterIZ4mainEUlS0_S0_E_EEEvT_S7_T0_:
.LFB11381:
	pushq	%rbp
	.seh_pushreg	%rbp
	pushq	%rbx
	.seh_pushreg	%rbx
	subq	$56, %rsp
	.seh_stackalloc	56
	leaq	48(%rsp), %rbp
	.seh_setframe	%rbp, 48
	.seh_endprologue
	movq	%rcx, 32(%rbp)
	movq	%rdx, 40(%rbp)
	movq	32(%rbp), %rax
	movq	%rax, -8(%rbp)
	jmp	.L343
.L344:
	movzbl	48(%rbp), %eax
	movl	%eax, %ecx
	call	_ZN9__gnu_cxx5__ops15__val_comp_iterIZ4mainEUl4nodeS2_E_EENS0_14_Val_comp_iterIT_EENS0_15_Iter_comp_iterIS5_EE
	movq	-8(%rbp), %rax
	movl	%ebx, %edx
	movq	%rax, %rcx
	call	_ZSt25__unguarded_linear_insertIP4nodeN9__gnu_cxx5__ops14_Val_comp_iterIZ4mainEUlS0_S0_E_EEEvT_T0_
	addq	$8, -8(%rbp)
.L343:
	movq	-8(%rbp), %rax
	cmpq	40(%rbp), %rax
	jne	.L344
	nop
	nop
	addq	$56, %rsp
	popq	%rbx
	popq	%rbp
	ret
	.seh_endproc
	.section	.text$_ZNSt8_Rb_treeIiSt4pairIKiSt3mapIiiSt4lessIiESaIS0_IS1_iEEEESt10_Select1stIS8_ES4_SaIS8_EE6_M_endEv,"x"
	.linkonce discard
	.align 2
	.globl	_ZNSt8_Rb_treeIiSt4pairIKiSt3mapIiiSt4lessIiESaIS0_IS1_iEEEESt10_Select1stIS8_ES4_SaIS8_EE6_M_endEv
	.def	_ZNSt8_Rb_treeIiSt4pairIKiSt3mapIiiSt4lessIiESaIS0_IS1_iEEEESt10_Select1stIS8_ES4_SaIS8_EE6_M_endEv;	.scl	2;	.type	32;	.endef
	.seh_proc	_ZNSt8_Rb_treeIiSt4pairIKiSt3mapIiiSt4lessIiESaIS0_IS1_iEEEESt10_Select1stIS8_ES4_SaIS8_EE6_M_endEv
_ZNSt8_Rb_treeIiSt4pairIKiSt3mapIiiSt4lessIiESaIS0_IS1_iEEEESt10_Select1stIS8_ES4_SaIS8_EE6_M_endEv:
.LFB11382:
	pushq	%rbp
	.seh_pushreg	%rbp
	movq	%rsp, %rbp
	.seh_setframe	%rbp, 0
	.seh_endprologue
	movq	%rcx, 16(%rbp)
	movq	16(%rbp), %rax
	addq	$8, %rax
	popq	%rbp
	ret
	.seh_endproc
	.section	.text$_ZNSt8_Rb_treeIiSt4pairIKiSt3mapIiiSt4lessIiESaIS0_IS1_iEEEESt10_Select1stIS8_ES4_SaIS8_EE14_M_lower_boundEPSt13_Rb_tree_nodeIS8_EPSt18_Rb_tree_node_baseRS1_,"x"
	.linkonce discard
	.align 2
	.globl	_ZNSt8_Rb_treeIiSt4pairIKiSt3mapIiiSt4lessIiESaIS0_IS1_iEEEESt10_Select1stIS8_ES4_SaIS8_EE14_M_lower_boundEPSt13_Rb_tree_nodeIS8_EPSt18_Rb_tree_node_baseRS1_
	.def	_ZNSt8_Rb_treeIiSt4pairIKiSt3mapIiiSt4lessIiESaIS0_IS1_iEEEESt10_Select1stIS8_ES4_SaIS8_EE14_M_lower_boundEPSt13_Rb_tree_nodeIS8_EPSt18_Rb_tree_node_baseRS1_;	.scl	2;	.type	32;	.endef
	.seh_proc	_ZNSt8_Rb_treeIiSt4pairIKiSt3mapIiiSt4lessIiESaIS0_IS1_iEEEESt10_Select1stIS8_ES4_SaIS8_EE14_M_lower_boundEPSt13_Rb_tree_nodeIS8_EPSt18_Rb_tree_node_baseRS1_
_ZNSt8_Rb_treeIiSt4pairIKiSt3mapIiiSt4lessIiESaIS0_IS1_iEEEESt10_Select1stIS8_ES4_SaIS8_EE14_M_lower_boundEPSt13_Rb_tree_nodeIS8_EPSt18_Rb_tree_node_baseRS1_:
.LFB11383:
	pushq	%rbp
	.seh_pushreg	%rbp
	pushq	%rbx
	.seh_pushreg	%rbx
	subq	$56, %rsp
	.seh_stackalloc	56
	leaq	48(%rsp), %rbp
	.seh_setframe	%rbp, 48
	.seh_endprologue
	movq	%rcx, 32(%rbp)
	movq	%rdx, 40(%rbp)
	movq	%r8, 48(%rbp)
	movq	%r9, 56(%rbp)
	jmp	.L348
.L350:
	movq	32(%rbp), %rbx
	movq	40(%rbp), %rax
	movq	%rax, %rcx
	call	_ZNSt8_Rb_treeIiSt4pairIKiSt3mapIiiSt4lessIiESaIS0_IS1_iEEEESt10_Select1stIS8_ES4_SaIS8_EE6_S_keyEPKSt13_Rb_tree_nodeIS8_E
	movq	56(%rbp), %rdx
	movq	%rdx, %r8
	movq	%rax, %rdx
	movq	%rbx, %rcx
	call	_ZNKSt4lessIiEclERKiS2_
	xorl	$1, %eax
	testb	%al, %al
	je	.L349
	movq	40(%rbp), %rax
	movq	%rax, 48(%rbp)
	movq	40(%rbp), %rax
	movq	%rax, %rcx
	call	_ZNSt8_Rb_treeIiSt4pairIKiSt3mapIiiSt4lessIiESaIS0_IS1_iEEEESt10_Select1stIS8_ES4_SaIS8_EE7_S_leftEPSt18_Rb_tree_node_base
	movq	%rax, 40(%rbp)
	jmp	.L348
.L349:
	movq	40(%rbp), %rax
	movq	%rax, %rcx
	call	_ZNSt8_Rb_treeIiSt4pairIKiSt3mapIiiSt4lessIiESaIS0_IS1_iEEEESt10_Select1stIS8_ES4_SaIS8_EE8_S_rightEPSt18_Rb_tree_node_base
	movq	%rax, 40(%rbp)
.L348:
	cmpq	$0, 40(%rbp)
	jne	.L350
	movq	48(%rbp), %rdx
	leaq	-8(%rbp), %rax
	movq	%rax, %rcx
	call	_ZNSt17_Rb_tree_iteratorISt4pairIKiSt3mapIiiSt4lessIiESaIS0_IS1_iEEEEEC1EPSt18_Rb_tree_node_base
	movq	-8(%rbp), %rax
	addq	$56, %rsp
	popq	%rbx
	popq	%rbp
	ret
	.seh_endproc
	.section	.text$_ZN9__gnu_cxx16__aligned_membufISt4pairIKiSt3mapIiiSt4lessIiESaIS1_IS2_iEEEEE6_M_ptrEv,"x"
	.linkonce discard
	.align 2
	.globl	_ZN9__gnu_cxx16__aligned_membufISt4pairIKiSt3mapIiiSt4lessIiESaIS1_IS2_iEEEEE6_M_ptrEv
	.def	_ZN9__gnu_cxx16__aligned_membufISt4pairIKiSt3mapIiiSt4lessIiESaIS1_IS2_iEEEEE6_M_ptrEv;	.scl	2;	.type	32;	.endef
	.seh_proc	_ZN9__gnu_cxx16__aligned_membufISt4pairIKiSt3mapIiiSt4lessIiESaIS1_IS2_iEEEEE6_M_ptrEv
_ZN9__gnu_cxx16__aligned_membufISt4pairIKiSt3mapIiiSt4lessIiESaIS1_IS2_iEEEEE6_M_ptrEv:
.LFB11384:
	pushq	%rbp
	.seh_pushreg	%rbp
	movq	%rsp, %rbp
	.seh_setframe	%rbp, 0
	subq	$32, %rsp
	.seh_stackalloc	32
	.seh_endprologue
	movq	%rcx, 16(%rbp)
	movq	16(%rbp), %rax
	movq	%rax, %rcx
	call	_ZN9__gnu_cxx16__aligned_membufISt4pairIKiSt3mapIiiSt4lessIiESaIS1_IS2_iEEEEE7_M_addrEv
	addq	$32, %rsp
	popq	%rbp
	ret
	.seh_endproc
	.section	.text$_ZNSt10_Head_baseILy0ERKiLb0EEC2ES1_,"x"
	.linkonce discard
	.align 2
	.globl	_ZNSt10_Head_baseILy0ERKiLb0EEC2ES1_
	.def	_ZNSt10_Head_baseILy0ERKiLb0EEC2ES1_;	.scl	2;	.type	32;	.endef
	.seh_proc	_ZNSt10_Head_baseILy0ERKiLb0EEC2ES1_
_ZNSt10_Head_baseILy0ERKiLb0EEC2ES1_:
.LFB11386:
	pushq	%rbp
	.seh_pushreg	%rbp
	movq	%rsp, %rbp
	.seh_setframe	%rbp, 0
	.seh_endprologue
	movq	%rcx, 16(%rbp)
	movq	%rdx, 24(%rbp)
	movq	16(%rbp), %rax
	movq	24(%rbp), %rdx
	movq	%rdx, (%rax)
	nop
	popq	%rbp
	ret
	.seh_endproc
	.section	.text$_ZNSt8_Rb_treeIiSt4pairIKiSt3mapIiiSt4lessIiESaIS0_IS1_iEEEESt10_Select1stIS8_ES4_SaIS8_EE14_M_create_nodeIJRKSt21piecewise_construct_tSt5tupleIJRS1_EESH_IJEEEEEPSt13_Rb_tree_nodeIS8_EDpOT_,"x"
	.linkonce discard
	.align 2
	.globl	_ZNSt8_Rb_treeIiSt4pairIKiSt3mapIiiSt4lessIiESaIS0_IS1_iEEEESt10_Select1stIS8_ES4_SaIS8_EE14_M_create_nodeIJRKSt21piecewise_construct_tSt5tupleIJRS1_EESH_IJEEEEEPSt13_Rb_tree_nodeIS8_EDpOT_
	.def	_ZNSt8_Rb_treeIiSt4pairIKiSt3mapIiiSt4lessIiESaIS0_IS1_iEEEESt10_Select1stIS8_ES4_SaIS8_EE14_M_create_nodeIJRKSt21piecewise_construct_tSt5tupleIJRS1_EESH_IJEEEEEPSt13_Rb_tree_nodeIS8_EDpOT_;	.scl	2;	.type	32;	.endef
	.seh_proc	_ZNSt8_Rb_treeIiSt4pairIKiSt3mapIiiSt4lessIiESaIS0_IS1_iEEEESt10_Select1stIS8_ES4_SaIS8_EE14_M_create_nodeIJRKSt21piecewise_construct_tSt5tupleIJRS1_EESH_IJEEEEEPSt13_Rb_tree_nodeIS8_EDpOT_
_ZNSt8_Rb_treeIiSt4pairIKiSt3mapIiiSt4lessIiESaIS0_IS1_iEEEESt10_Select1stIS8_ES4_SaIS8_EE14_M_create_nodeIJRKSt21piecewise_construct_tSt5tupleIJRS1_EESH_IJEEEEEPSt13_Rb_tree_nodeIS8_EDpOT_:
.LFB11388:
	pushq	%rbp
	.seh_pushreg	%rbp
	pushq	%rsi
	.seh_pushreg	%rsi
	pushq	%rbx
	.seh_pushreg	%rbx
	subq	$64, %rsp
	.seh_stackalloc	64
	leaq	64(%rsp), %rbp
	.seh_setframe	%rbp, 64
	.seh_endprologue
	movq	%rcx, 32(%rbp)
	movq	%rdx, 40(%rbp)
	movq	%r8, 48(%rbp)
	movq	%r9, 56(%rbp)
	movq	32(%rbp), %rax
	movq	%rax, %rcx
	call	_ZNSt8_Rb_treeIiSt4pairIKiSt3mapIiiSt4lessIiESaIS0_IS1_iEEEESt10_Select1stIS8_ES4_SaIS8_EE11_M_get_nodeEv
	movq	%rax, -8(%rbp)
	movq	56(%rbp), %rax
	movq	%rax, %rcx
	call	_ZSt7forwardISt5tupleIJEEEOT_RNSt16remove_referenceIS2_E4typeE
	movq	%rax, %rbx
	movq	48(%rbp), %rax
	movq	%rax, %rcx
	call	_ZSt7forwardISt5tupleIJRKiEEEOT_RNSt16remove_referenceIS4_E4typeE
	movq	%rax, %rsi
	movq	40(%rbp), %rax
	movq	%rax, %rcx
	call	_ZSt7forwardIRKSt21piecewise_construct_tEOT_RNSt16remove_referenceIS3_E4typeE
	movq	%rax, %rcx
	movq	-8(%rbp), %rdx
	movq	32(%rbp), %rax
	movq	%rbx, 32(%rsp)
	movq	%rsi, %r9
	movq	%rcx, %r8
	movq	%rax, %rcx
	call	_ZNSt8_Rb_treeIiSt4pairIKiSt3mapIiiSt4lessIiESaIS0_IS1_iEEEESt10_Select1stIS8_ES4_SaIS8_EE17_M_construct_nodeIJRKSt21piecewise_construct_tSt5tupleIJRS1_EESH_IJEEEEEvPSt13_Rb_tree_nodeIS8_EDpOT_
	movq	-8(%rbp), %rax
	addq	$64, %rsp
	popq	%rbx
	popq	%rsi
	popq	%rbp
	ret
	.seh_endproc
	.section	.text$_ZNKSt23_Rb_tree_const_iteratorISt4pairIKiSt3mapIiiSt4lessIiESaIS0_IS1_iEEEEE13_M_const_castEv,"x"
	.linkonce discard
	.align 2
	.globl	_ZNKSt23_Rb_tree_const_iteratorISt4pairIKiSt3mapIiiSt4lessIiESaIS0_IS1_iEEEEE13_M_const_castEv
	.def	_ZNKSt23_Rb_tree_const_iteratorISt4pairIKiSt3mapIiiSt4lessIiESaIS0_IS1_iEEEEE13_M_const_castEv;	.scl	2;	.type	32;	.endef
	.seh_proc	_ZNKSt23_Rb_tree_const_iteratorISt4pairIKiSt3mapIiiSt4lessIiESaIS0_IS1_iEEEEE13_M_const_castEv
_ZNKSt23_Rb_tree_const_iteratorISt4pairIKiSt3mapIiiSt4lessIiESaIS0_IS1_iEEEEE13_M_const_castEv:
.LFB11389:
	pushq	%rbp
	.seh_pushreg	%rbp
	movq	%rsp, %rbp
	.seh_setframe	%rbp, 0
	subq	$48, %rsp
	.seh_stackalloc	48
	.seh_endprologue
	movq	%rcx, 16(%rbp)
	movq	16(%rbp), %rax
	movq	(%rax), %rdx
	leaq	-8(%rbp), %rax
	movq	%rax, %rcx
	call	_ZNSt17_Rb_tree_iteratorISt4pairIKiSt3mapIiiSt4lessIiESaIS0_IS1_iEEEEEC1EPSt18_Rb_tree_node_base
	movq	-8(%rbp), %rax
	addq	$48, %rsp
	popq	%rbp
	ret
	.seh_endproc
	.section	.text$_ZNKSt8_Rb_treeIiSt4pairIKiSt3mapIiiSt4lessIiESaIS0_IS1_iEEEESt10_Select1stIS8_ES4_SaIS8_EE4sizeEv,"x"
	.linkonce discard
	.align 2
	.globl	_ZNKSt8_Rb_treeIiSt4pairIKiSt3mapIiiSt4lessIiESaIS0_IS1_iEEEESt10_Select1stIS8_ES4_SaIS8_EE4sizeEv
	.def	_ZNKSt8_Rb_treeIiSt4pairIKiSt3mapIiiSt4lessIiESaIS0_IS1_iEEEESt10_Select1stIS8_ES4_SaIS8_EE4sizeEv;	.scl	2;	.type	32;	.endef
	.seh_proc	_ZNKSt8_Rb_treeIiSt4pairIKiSt3mapIiiSt4lessIiESaIS0_IS1_iEEEESt10_Select1stIS8_ES4_SaIS8_EE4sizeEv
_ZNKSt8_Rb_treeIiSt4pairIKiSt3mapIiiSt4lessIiESaIS0_IS1_iEEEESt10_Select1stIS8_ES4_SaIS8_EE4sizeEv:
.LFB11390:
	pushq	%rbp
	.seh_pushreg	%rbp
	movq	%rsp, %rbp
	.seh_setframe	%rbp, 0
	.seh_endprologue
	movq	%rcx, 16(%rbp)
	movq	16(%rbp), %rax
	movq	40(%rax), %rax
	popq	%rbp
	ret
	.seh_endproc
	.section	.text$_ZNSt8_Rb_treeIiSt4pairIKiSt3mapIiiSt4lessIiESaIS0_IS1_iEEEESt10_Select1stIS8_ES4_SaIS8_EE12_M_rightmostEv,"x"
	.linkonce discard
	.align 2
	.globl	_ZNSt8_Rb_treeIiSt4pairIKiSt3mapIiiSt4lessIiESaIS0_IS1_iEEEESt10_Select1stIS8_ES4_SaIS8_EE12_M_rightmostEv
	.def	_ZNSt8_Rb_treeIiSt4pairIKiSt3mapIiiSt4lessIiESaIS0_IS1_iEEEESt10_Select1stIS8_ES4_SaIS8_EE12_M_rightmostEv;	.scl	2;	.type	32;	.endef
	.seh_proc	_ZNSt8_Rb_treeIiSt4pairIKiSt3mapIiiSt4lessIiESaIS0_IS1_iEEEESt10_Select1stIS8_ES4_SaIS8_EE12_M_rightmostEv
_ZNSt8_Rb_treeIiSt4pairIKiSt3mapIiiSt4lessIiESaIS0_IS1_iEEEESt10_Select1stIS8_ES4_SaIS8_EE12_M_rightmostEv:
.LFB11391:
	pushq	%rbp
	.seh_pushreg	%rbp
	movq	%rsp, %rbp
	.seh_setframe	%rbp, 0
	.seh_endprologue
	movq	%rcx, 16(%rbp)
	movq	16(%rbp), %rax
	addq	$32, %rax
	popq	%rbp
	ret
	.seh_endproc
	.section	.text$_ZNSt8_Rb_treeIiSt4pairIKiSt3mapIiiSt4lessIiESaIS0_IS1_iEEEESt10_Select1stIS8_ES4_SaIS8_EE6_S_keyEPKSt18_Rb_tree_node_base,"x"
	.linkonce discard
	.globl	_ZNSt8_Rb_treeIiSt4pairIKiSt3mapIiiSt4lessIiESaIS0_IS1_iEEEESt10_Select1stIS8_ES4_SaIS8_EE6_S_keyEPKSt18_Rb_tree_node_base
	.def	_ZNSt8_Rb_treeIiSt4pairIKiSt3mapIiiSt4lessIiESaIS0_IS1_iEEEESt10_Select1stIS8_ES4_SaIS8_EE6_S_keyEPKSt18_Rb_tree_node_base;	.scl	2;	.type	32;	.endef
	.seh_proc	_ZNSt8_Rb_treeIiSt4pairIKiSt3mapIiiSt4lessIiESaIS0_IS1_iEEEESt10_Select1stIS8_ES4_SaIS8_EE6_S_keyEPKSt18_Rb_tree_node_base
_ZNSt8_Rb_treeIiSt4pairIKiSt3mapIiiSt4lessIiESaIS0_IS1_iEEEESt10_Select1stIS8_ES4_SaIS8_EE6_S_keyEPKSt18_Rb_tree_node_base:
.LFB11392:
	pushq	%rbp
	.seh_pushreg	%rbp
	movq	%rsp, %rbp
	.seh_setframe	%rbp, 0
	subq	$32, %rsp
	.seh_stackalloc	32
	.seh_endprologue
	movq	%rcx, 16(%rbp)
	movq	16(%rbp), %rax
	movq	%rax, %rcx
	call	_ZNSt8_Rb_treeIiSt4pairIKiSt3mapIiiSt4lessIiESaIS0_IS1_iEEEESt10_Select1stIS8_ES4_SaIS8_EE6_S_keyEPKSt13_Rb_tree_nodeIS8_E
	addq	$32, %rsp
	popq	%rbp
	ret
	.seh_endproc
	.section	.text$_ZNSt4pairIPSt18_Rb_tree_node_baseS1_EC1IS1_S1_Lb1EEERKS1_S5_,"x"
	.linkonce discard
	.align 2
	.globl	_ZNSt4pairIPSt18_Rb_tree_node_baseS1_EC1IS1_S1_Lb1EEERKS1_S5_
	.def	_ZNSt4pairIPSt18_Rb_tree_node_baseS1_EC1IS1_S1_Lb1EEERKS1_S5_;	.scl	2;	.type	32;	.endef
	.seh_proc	_ZNSt4pairIPSt18_Rb_tree_node_baseS1_EC1IS1_S1_Lb1EEERKS1_S5_
_ZNSt4pairIPSt18_Rb_tree_node_baseS1_EC1IS1_S1_Lb1EEERKS1_S5_:
.LFB11395:
	pushq	%rbp
	.seh_pushreg	%rbp
	movq	%rsp, %rbp
	.seh_setframe	%rbp, 0
	.seh_endprologue
	movq	%rcx, 16(%rbp)
	movq	%rdx, 24(%rbp)
	movq	%r8, 32(%rbp)
	movq	24(%rbp), %rax
	movq	(%rax), %rdx
	movq	16(%rbp), %rax
	movq	%rdx, (%rax)
	movq	32(%rbp), %rax
	movq	(%rax), %rdx
	movq	16(%rbp), %rax
	movq	%rdx, 8(%rax)
	nop
	popq	%rbp
	ret
	.seh_endproc
	.section	.text$_ZNSt8_Rb_treeIiSt4pairIKiSt3mapIiiSt4lessIiESaIS0_IS1_iEEEESt10_Select1stIS8_ES4_SaIS8_EE24_M_get_insert_unique_posERS1_,"x"
	.linkonce discard
	.align 2
	.globl	_ZNSt8_Rb_treeIiSt4pairIKiSt3mapIiiSt4lessIiESaIS0_IS1_iEEEESt10_Select1stIS8_ES4_SaIS8_EE24_M_get_insert_unique_posERS1_
	.def	_ZNSt8_Rb_treeIiSt4pairIKiSt3mapIiiSt4lessIiESaIS0_IS1_iEEEESt10_Select1stIS8_ES4_SaIS8_EE24_M_get_insert_unique_posERS1_;	.scl	2;	.type	32;	.endef
	.seh_proc	_ZNSt8_Rb_treeIiSt4pairIKiSt3mapIiiSt4lessIiESaIS0_IS1_iEEEESt10_Select1stIS8_ES4_SaIS8_EE24_M_get_insert_unique_posERS1_
_ZNSt8_Rb_treeIiSt4pairIKiSt3mapIiiSt4lessIiESaIS0_IS1_iEEEESt10_Select1stIS8_ES4_SaIS8_EE24_M_get_insert_unique_posERS1_:
.LFB11396:
	pushq	%rbp
	.seh_pushreg	%rbp
	pushq	%rbx
	.seh_pushreg	%rbx
	subq	$88, %rsp
	.seh_stackalloc	88
	leaq	80(%rsp), %rbp
	.seh_setframe	%rbp, 80
	.seh_endprologue
	movq	%rcx, 32(%rbp)
	movq	%rdx, 40(%rbp)
	movq	%r8, 48(%rbp)
	movq	40(%rbp), %rax
	movq	%rax, %rcx
	call	_ZNSt8_Rb_treeIiSt4pairIKiSt3mapIiiSt4lessIiESaIS0_IS1_iEEEESt10_Select1stIS8_ES4_SaIS8_EE8_M_beginEv
	movq	%rax, -32(%rbp)
	movq	40(%rbp), %rax
	movq	%rax, %rcx
	call	_ZNSt8_Rb_treeIiSt4pairIKiSt3mapIiiSt4lessIiESaIS0_IS1_iEEEESt10_Select1stIS8_ES4_SaIS8_EE6_M_endEv
	movq	%rax, -40(%rbp)
	movb	$1, -1(%rbp)
	jmp	.L367
.L370:
	movq	-32(%rbp), %rax
	movq	%rax, -40(%rbp)
	movq	40(%rbp), %rbx
	movq	-32(%rbp), %rax
	movq	%rax, %rcx
	call	_ZNSt8_Rb_treeIiSt4pairIKiSt3mapIiiSt4lessIiESaIS0_IS1_iEEEESt10_Select1stIS8_ES4_SaIS8_EE6_S_keyEPKSt13_Rb_tree_nodeIS8_E
	movq	%rax, %rdx
	movq	48(%rbp), %rax
	movq	%rdx, %r8
	movq	%rax, %rdx
	movq	%rbx, %rcx
	call	_ZNKSt4lessIiEclERKiS2_
	movb	%al, -1(%rbp)
	cmpb	$0, -1(%rbp)
	je	.L368
	movq	-32(%rbp), %rax
	movq	%rax, %rcx
	call	_ZNSt8_Rb_treeIiSt4pairIKiSt3mapIiiSt4lessIiESaIS0_IS1_iEEEESt10_Select1stIS8_ES4_SaIS8_EE7_S_leftEPSt18_Rb_tree_node_base
	jmp	.L369
.L368:
	movq	-32(%rbp), %rax
	movq	%rax, %rcx
	call	_ZNSt8_Rb_treeIiSt4pairIKiSt3mapIiiSt4lessIiESaIS0_IS1_iEEEESt10_Select1stIS8_ES4_SaIS8_EE8_S_rightEPSt18_Rb_tree_node_base
.L369:
	movq	%rax, -32(%rbp)
.L367:
	movq	-32(%rbp), %rax
	testq	%rax, %rax
	jne	.L370
	movq	-40(%rbp), %rdx
	leaq	-48(%rbp), %rax
	movq	%rax, %rcx
	call	_ZNSt17_Rb_tree_iteratorISt4pairIKiSt3mapIiiSt4lessIiESaIS0_IS1_iEEEEEC1EPSt18_Rb_tree_node_base
	cmpb	$0, -1(%rbp)
	je	.L371
	movq	40(%rbp), %rax
	movq	%rax, %rcx
	call	_ZNSt8_Rb_treeIiSt4pairIKiSt3mapIiiSt4lessIiESaIS0_IS1_iEEEESt10_Select1stIS8_ES4_SaIS8_EE5beginEv
	movq	%rax, -24(%rbp)
	leaq	-24(%rbp), %rdx
	leaq	-48(%rbp), %rax
	movq	%rax, %rcx
	call	_ZSteqRKSt17_Rb_tree_iteratorISt4pairIKiSt3mapIiiSt4lessIiESaIS0_IS1_iEEEEESB_
	testb	%al, %al
	je	.L372
	leaq	-40(%rbp), %rdx
	leaq	-32(%rbp), %rax
	movq	32(%rbp), %rcx
	movq	%rdx, %r8
	movq	%rax, %rdx
	call	_ZNSt4pairIPSt18_Rb_tree_node_baseS1_EC1IRPSt13_Rb_tree_nodeIS_IKiSt3mapIiiSt4lessIiESaIS_IS5_iEEEEERS1_Lb1EEEOT_OT0_
	jmp	.L375
.L372:
	leaq	-48(%rbp), %rax
	movq	%rax, %rcx
	call	_ZNSt17_Rb_tree_iteratorISt4pairIKiSt3mapIiiSt4lessIiESaIS0_IS1_iEEEEEmmEv
.L371:
	movq	40(%rbp), %rbx
	movq	-48(%rbp), %rax
	movq	%rax, %rcx
	call	_ZNSt8_Rb_treeIiSt4pairIKiSt3mapIiiSt4lessIiESaIS0_IS1_iEEEESt10_Select1stIS8_ES4_SaIS8_EE6_S_keyEPKSt18_Rb_tree_node_base
	movq	48(%rbp), %rdx
	movq	%rdx, %r8
	movq	%rax, %rdx
	movq	%rbx, %rcx
	call	_ZNKSt4lessIiEclERKiS2_
	testb	%al, %al
	je	.L374
	leaq	-40(%rbp), %rdx
	leaq	-32(%rbp), %rax
	movq	32(%rbp), %rcx
	movq	%rdx, %r8
	movq	%rax, %rdx
	call	_ZNSt4pairIPSt18_Rb_tree_node_baseS1_EC1IRPSt13_Rb_tree_nodeIS_IKiSt3mapIiiSt4lessIiESaIS_IS5_iEEEEERS1_Lb1EEEOT_OT0_
	jmp	.L375
.L374:
	movq	$0, -16(%rbp)
	leaq	-16(%rbp), %rdx
	leaq	-48(%rbp), %rax
	movq	32(%rbp), %rcx
	movq	%rdx, %r8
	movq	%rax, %rdx
	call	_ZNSt4pairIPSt18_Rb_tree_node_baseS1_EC1IS1_S1_Lb1EEERKS1_S5_
.L375:
	movq	32(%rbp), %rax
	addq	$88, %rsp
	popq	%rbx
	popq	%rbp
	ret
	.seh_endproc
	.section	.text$_ZNSt8_Rb_treeIiSt4pairIKiSt3mapIiiSt4lessIiESaIS0_IS1_iEEEESt10_Select1stIS8_ES4_SaIS8_EE11_M_leftmostEv,"x"
	.linkonce discard
	.align 2
	.globl	_ZNSt8_Rb_treeIiSt4pairIKiSt3mapIiiSt4lessIiESaIS0_IS1_iEEEESt10_Select1stIS8_ES4_SaIS8_EE11_M_leftmostEv
	.def	_ZNSt8_Rb_treeIiSt4pairIKiSt3mapIiiSt4lessIiESaIS0_IS1_iEEEESt10_Select1stIS8_ES4_SaIS8_EE11_M_leftmostEv;	.scl	2;	.type	32;	.endef
	.seh_proc	_ZNSt8_Rb_treeIiSt4pairIKiSt3mapIiiSt4lessIiESaIS0_IS1_iEEEESt10_Select1stIS8_ES4_SaIS8_EE11_M_leftmostEv
_ZNSt8_Rb_treeIiSt4pairIKiSt3mapIiiSt4lessIiESaIS0_IS1_iEEEESt10_Select1stIS8_ES4_SaIS8_EE11_M_leftmostEv:
.LFB11399:
	pushq	%rbp
	.seh_pushreg	%rbp
	movq	%rsp, %rbp
	.seh_setframe	%rbp, 0
	.seh_endprologue
	movq	%rcx, 16(%rbp)
	movq	16(%rbp), %rax
	addq	$24, %rax
	popq	%rbp
	ret
	.seh_endproc
	.section	.text$_ZNSt4pairIPSt18_Rb_tree_node_baseS1_EC1IRS1_S4_Lb1EEEOT_OT0_,"x"
	.linkonce discard
	.align 2
	.globl	_ZNSt4pairIPSt18_Rb_tree_node_baseS1_EC1IRS1_S4_Lb1EEEOT_OT0_
	.def	_ZNSt4pairIPSt18_Rb_tree_node_baseS1_EC1IRS1_S4_Lb1EEEOT_OT0_;	.scl	2;	.type	32;	.endef
	.seh_proc	_ZNSt4pairIPSt18_Rb_tree_node_baseS1_EC1IRS1_S4_Lb1EEEOT_OT0_
_ZNSt4pairIPSt18_Rb_tree_node_baseS1_EC1IRS1_S4_Lb1EEEOT_OT0_:
.LFB11402:
	pushq	%rbp
	.seh_pushreg	%rbp
	movq	%rsp, %rbp
	.seh_setframe	%rbp, 0
	subq	$32, %rsp
	.seh_stackalloc	32
	.seh_endprologue
	movq	%rcx, 16(%rbp)
	movq	%rdx, 24(%rbp)
	movq	%r8, 32(%rbp)
	movq	24(%rbp), %rax
	movq	%rax, %rcx
	call	_ZSt7forwardIRPSt18_Rb_tree_node_baseEOT_RNSt16remove_referenceIS3_E4typeE
	movq	(%rax), %rdx
	movq	16(%rbp), %rax
	movq	%rdx, (%rax)
	movq	32(%rbp), %rax
	movq	%rax, %rcx
	call	_ZSt7forwardIRPSt18_Rb_tree_node_baseEOT_RNSt16remove_referenceIS3_E4typeE
	movq	(%rax), %rdx
	movq	16(%rbp), %rax
	movq	%rdx, 8(%rax)
	nop
	addq	$32, %rsp
	popq	%rbp
	ret
	.seh_endproc
	.section	.text$_ZNSt17_Rb_tree_iteratorISt4pairIKiSt3mapIiiSt4lessIiESaIS0_IS1_iEEEEEmmEv,"x"
	.linkonce discard
	.align 2
	.globl	_ZNSt17_Rb_tree_iteratorISt4pairIKiSt3mapIiiSt4lessIiESaIS0_IS1_iEEEEEmmEv
	.def	_ZNSt17_Rb_tree_iteratorISt4pairIKiSt3mapIiiSt4lessIiESaIS0_IS1_iEEEEEmmEv;	.scl	2;	.type	32;	.endef
	.seh_proc	_ZNSt17_Rb_tree_iteratorISt4pairIKiSt3mapIiiSt4lessIiESaIS0_IS1_iEEEEEmmEv
_ZNSt17_Rb_tree_iteratorISt4pairIKiSt3mapIiiSt4lessIiESaIS0_IS1_iEEEEEmmEv:
.LFB11403:
	pushq	%rbp
	.seh_pushreg	%rbp
	movq	%rsp, %rbp
	.seh_setframe	%rbp, 0
	subq	$32, %rsp
	.seh_stackalloc	32
	.seh_endprologue
	movq	%rcx, 16(%rbp)
	movq	16(%rbp), %rax
	movq	(%rax), %rax
	movq	%rax, %rcx
	call	_ZSt18_Rb_tree_decrementPSt18_Rb_tree_node_base
	movq	16(%rbp), %rdx
	movq	%rax, (%rdx)
	movq	16(%rbp), %rax
	addq	$32, %rsp
	popq	%rbp
	ret
	.seh_endproc
	.section	.text$_ZNSt17_Rb_tree_iteratorISt4pairIKiSt3mapIiiSt4lessIiESaIS0_IS1_iEEEEEppEv,"x"
	.linkonce discard
	.align 2
	.globl	_ZNSt17_Rb_tree_iteratorISt4pairIKiSt3mapIiiSt4lessIiESaIS0_IS1_iEEEEEppEv
	.def	_ZNSt17_Rb_tree_iteratorISt4pairIKiSt3mapIiiSt4lessIiESaIS0_IS1_iEEEEEppEv;	.scl	2;	.type	32;	.endef
	.seh_proc	_ZNSt17_Rb_tree_iteratorISt4pairIKiSt3mapIiiSt4lessIiESaIS0_IS1_iEEEEEppEv
_ZNSt17_Rb_tree_iteratorISt4pairIKiSt3mapIiiSt4lessIiESaIS0_IS1_iEEEEEppEv:
.LFB11404:
	pushq	%rbp
	.seh_pushreg	%rbp
	movq	%rsp, %rbp
	.seh_setframe	%rbp, 0
	subq	$32, %rsp
	.seh_stackalloc	32
	.seh_endprologue
	movq	%rcx, 16(%rbp)
	movq	16(%rbp), %rax
	movq	(%rax), %rax
	movq	%rax, %rcx
	call	_ZSt18_Rb_tree_incrementPSt18_Rb_tree_node_base
	movq	16(%rbp), %rdx
	movq	%rax, (%rdx)
	movq	16(%rbp), %rax
	addq	$32, %rsp
	popq	%rbp
	ret
	.seh_endproc
	.section	.text$_ZNSt8_Rb_treeIiSt4pairIKiSt3mapIiiSt4lessIiESaIS0_IS1_iEEEESt10_Select1stIS8_ES4_SaIS8_EE6_S_keyEPKSt13_Rb_tree_nodeIS8_E,"x"
	.linkonce discard
	.globl	_ZNSt8_Rb_treeIiSt4pairIKiSt3mapIiiSt4lessIiESaIS0_IS1_iEEEESt10_Select1stIS8_ES4_SaIS8_EE6_S_keyEPKSt13_Rb_tree_nodeIS8_E
	.def	_ZNSt8_Rb_treeIiSt4pairIKiSt3mapIiiSt4lessIiESaIS0_IS1_iEEEESt10_Select1stIS8_ES4_SaIS8_EE6_S_keyEPKSt13_Rb_tree_nodeIS8_E;	.scl	2;	.type	32;	.endef
	.seh_proc	_ZNSt8_Rb_treeIiSt4pairIKiSt3mapIiiSt4lessIiESaIS0_IS1_iEEEESt10_Select1stIS8_ES4_SaIS8_EE6_S_keyEPKSt13_Rb_tree_nodeIS8_E
_ZNSt8_Rb_treeIiSt4pairIKiSt3mapIiiSt4lessIiESaIS0_IS1_iEEEESt10_Select1stIS8_ES4_SaIS8_EE6_S_keyEPKSt13_Rb_tree_nodeIS8_E:
.LFB11405:
	pushq	%rbp
	.seh_pushreg	%rbp
	movq	%rsp, %rbp
	.seh_setframe	%rbp, 0
	subq	$48, %rsp
	.seh_stackalloc	48
	.seh_endprologue
	movq	%rcx, 16(%rbp)
	movq	16(%rbp), %rax
	movq	%rax, %rcx
	call	_ZNKSt13_Rb_tree_nodeISt4pairIKiSt3mapIiiSt4lessIiESaIS0_IS1_iEEEEE9_M_valptrEv
	movq	%rax, %rdx
	leaq	-1(%rbp), %rax
	movq	%rax, %rcx
	call	_ZNKSt10_Select1stISt4pairIKiSt3mapIiiSt4lessIiESaIS0_IS1_iEEEEEclERKS8_
	addq	$48, %rsp
	popq	%rbp
	ret
	.seh_endproc
	.section	.text$_ZNSt8_Rb_treeIiSt4pairIKiSt3mapIiiSt4lessIiESaIS0_IS1_iEEEESt10_Select1stIS8_ES4_SaIS8_EE14_M_insert_nodeEPSt18_Rb_tree_node_baseSE_PSt13_Rb_tree_nodeIS8_E,"x"
	.linkonce discard
	.align 2
	.globl	_ZNSt8_Rb_treeIiSt4pairIKiSt3mapIiiSt4lessIiESaIS0_IS1_iEEEESt10_Select1stIS8_ES4_SaIS8_EE14_M_insert_nodeEPSt18_Rb_tree_node_baseSE_PSt13_Rb_tree_nodeIS8_E
	.def	_ZNSt8_Rb_treeIiSt4pairIKiSt3mapIiiSt4lessIiESaIS0_IS1_iEEEESt10_Select1stIS8_ES4_SaIS8_EE14_M_insert_nodeEPSt18_Rb_tree_node_baseSE_PSt13_Rb_tree_nodeIS8_E;	.scl	2;	.type	32;	.endef
	.seh_proc	_ZNSt8_Rb_treeIiSt4pairIKiSt3mapIiiSt4lessIiESaIS0_IS1_iEEEESt10_Select1stIS8_ES4_SaIS8_EE14_M_insert_nodeEPSt18_Rb_tree_node_baseSE_PSt13_Rb_tree_nodeIS8_E
_ZNSt8_Rb_treeIiSt4pairIKiSt3mapIiiSt4lessIiESaIS0_IS1_iEEEESt10_Select1stIS8_ES4_SaIS8_EE14_M_insert_nodeEPSt18_Rb_tree_node_baseSE_PSt13_Rb_tree_nodeIS8_E:
.LFB11407:
	pushq	%rbp
	.seh_pushreg	%rbp
	pushq	%rsi
	.seh_pushreg	%rsi
	pushq	%rbx
	.seh_pushreg	%rbx
	subq	$48, %rsp
	.seh_stackalloc	48
	leaq	48(%rsp), %rbp
	.seh_setframe	%rbp, 48
	.seh_endprologue
	movq	%rcx, 32(%rbp)
	movq	%rdx, 40(%rbp)
	movq	%r8, 48(%rbp)
	movq	%r9, 56(%rbp)
	cmpq	$0, 40(%rbp)
	jne	.L386
	movq	32(%rbp), %rax
	movq	%rax, %rcx
	call	_ZNSt8_Rb_treeIiSt4pairIKiSt3mapIiiSt4lessIiESaIS0_IS1_iEEEESt10_Select1stIS8_ES4_SaIS8_EE6_M_endEv
	cmpq	%rax, 48(%rbp)
	je	.L386
	movq	32(%rbp), %rbx
	movq	48(%rbp), %rax
	movq	%rax, %rcx
	call	_ZNSt8_Rb_treeIiSt4pairIKiSt3mapIiiSt4lessIiESaIS0_IS1_iEEEESt10_Select1stIS8_ES4_SaIS8_EE6_S_keyEPKSt18_Rb_tree_node_base
	movq	%rax, %rsi
	movq	56(%rbp), %rax
	movq	%rax, %rcx
	call	_ZNSt8_Rb_treeIiSt4pairIKiSt3mapIiiSt4lessIiESaIS0_IS1_iEEEESt10_Select1stIS8_ES4_SaIS8_EE6_S_keyEPKSt13_Rb_tree_nodeIS8_E
	movq	%rsi, %r8
	movq	%rax, %rdx
	movq	%rbx, %rcx
	call	_ZNKSt4lessIiEclERKiS2_
	testb	%al, %al
	je	.L387
.L386:
	movl	$1, %eax
	jmp	.L388
.L387:
	movl	$0, %eax
.L388:
	movb	%al, -1(%rbp)
	movq	32(%rbp), %rax
	leaq	8(%rax), %r8
	movzbl	-1(%rbp), %eax
	movq	48(%rbp), %rcx
	movq	56(%rbp), %rdx
	movq	%r8, %r9
	movq	%rcx, %r8
	movl	%eax, %ecx
	call	_ZSt29_Rb_tree_insert_and_rebalancebPSt18_Rb_tree_node_baseS0_RS_
	movq	32(%rbp), %rax
	movq	40(%rax), %rax
	leaq	1(%rax), %rdx
	movq	32(%rbp), %rax
	movq	%rdx, 40(%rax)
	movq	56(%rbp), %rdx
	leaq	-16(%rbp), %rax
	movq	%rax, %rcx
	call	_ZNSt17_Rb_tree_iteratorISt4pairIKiSt3mapIiiSt4lessIiESaIS0_IS1_iEEEEEC1EPSt18_Rb_tree_node_base
	movq	-16(%rbp), %rax
	addq	$48, %rsp
	popq	%rbx
	popq	%rsi
	popq	%rbp
	ret
	.seh_endproc
	.section	.text$_ZNSt8_Rb_treeIiSt4pairIKiiESt10_Select1stIS2_ESt4lessIiESaIS2_EE8_M_beginEv,"x"
	.linkonce discard
	.align 2
	.globl	_ZNSt8_Rb_treeIiSt4pairIKiiESt10_Select1stIS2_ESt4lessIiESaIS2_EE8_M_beginEv
	.def	_ZNSt8_Rb_treeIiSt4pairIKiiESt10_Select1stIS2_ESt4lessIiESaIS2_EE8_M_beginEv;	.scl	2;	.type	32;	.endef
	.seh_proc	_ZNSt8_Rb_treeIiSt4pairIKiiESt10_Select1stIS2_ESt4lessIiESaIS2_EE8_M_beginEv
_ZNSt8_Rb_treeIiSt4pairIKiiESt10_Select1stIS2_ESt4lessIiESaIS2_EE8_M_beginEv:
.LFB11408:
	pushq	%rbp
	.seh_pushreg	%rbp
	movq	%rsp, %rbp
	.seh_setframe	%rbp, 0
	subq	$32, %rsp
	.seh_stackalloc	32
	.seh_endprologue
	movq	%rcx, 16(%rbp)
	movq	16(%rbp), %rax
	movq	%rax, %rcx
	call	_ZNKSt8_Rb_treeIiSt4pairIKiiESt10_Select1stIS2_ESt4lessIiESaIS2_EE9_M_mbeginEv
	addq	$32, %rsp
	popq	%rbp
	ret
	.seh_endproc
	.section	.text$_ZNSt8_Rb_treeIiSt4pairIKiiESt10_Select1stIS2_ESt4lessIiESaIS2_EE6_M_endEv,"x"
	.linkonce discard
	.align 2
	.globl	_ZNSt8_Rb_treeIiSt4pairIKiiESt10_Select1stIS2_ESt4lessIiESaIS2_EE6_M_endEv
	.def	_ZNSt8_Rb_treeIiSt4pairIKiiESt10_Select1stIS2_ESt4lessIiESaIS2_EE6_M_endEv;	.scl	2;	.type	32;	.endef
	.seh_proc	_ZNSt8_Rb_treeIiSt4pairIKiiESt10_Select1stIS2_ESt4lessIiESaIS2_EE6_M_endEv
_ZNSt8_Rb_treeIiSt4pairIKiiESt10_Select1stIS2_ESt4lessIiESaIS2_EE6_M_endEv:
.LFB11409:
	pushq	%rbp
	.seh_pushreg	%rbp
	movq	%rsp, %rbp
	.seh_setframe	%rbp, 0
	.seh_endprologue
	movq	%rcx, 16(%rbp)
	movq	16(%rbp), %rax
	addq	$8, %rax
	popq	%rbp
	ret
	.seh_endproc
	.section	.text$_ZNSt8_Rb_treeIiSt4pairIKiiESt10_Select1stIS2_ESt4lessIiESaIS2_EE14_M_lower_boundEPSt13_Rb_tree_nodeIS2_EPSt18_Rb_tree_node_baseRS1_,"x"
	.linkonce discard
	.align 2
	.globl	_ZNSt8_Rb_treeIiSt4pairIKiiESt10_Select1stIS2_ESt4lessIiESaIS2_EE14_M_lower_boundEPSt13_Rb_tree_nodeIS2_EPSt18_Rb_tree_node_baseRS1_
	.def	_ZNSt8_Rb_treeIiSt4pairIKiiESt10_Select1stIS2_ESt4lessIiESaIS2_EE14_M_lower_boundEPSt13_Rb_tree_nodeIS2_EPSt18_Rb_tree_node_baseRS1_;	.scl	2;	.type	32;	.endef
	.seh_proc	_ZNSt8_Rb_treeIiSt4pairIKiiESt10_Select1stIS2_ESt4lessIiESaIS2_EE14_M_lower_boundEPSt13_Rb_tree_nodeIS2_EPSt18_Rb_tree_node_baseRS1_
_ZNSt8_Rb_treeIiSt4pairIKiiESt10_Select1stIS2_ESt4lessIiESaIS2_EE14_M_lower_boundEPSt13_Rb_tree_nodeIS2_EPSt18_Rb_tree_node_baseRS1_:
.LFB11410:
	pushq	%rbp
	.seh_pushreg	%rbp
	pushq	%rbx
	.seh_pushreg	%rbx
	subq	$56, %rsp
	.seh_stackalloc	56
	leaq	48(%rsp), %rbp
	.seh_setframe	%rbp, 48
	.seh_endprologue
	movq	%rcx, 32(%rbp)
	movq	%rdx, 40(%rbp)
	movq	%r8, 48(%rbp)
	movq	%r9, 56(%rbp)
	jmp	.L395
.L397:
	movq	32(%rbp), %rbx
	movq	40(%rbp), %rax
	movq	%rax, %rcx
	call	_ZNSt8_Rb_treeIiSt4pairIKiiESt10_Select1stIS2_ESt4lessIiESaIS2_EE6_S_keyEPKSt13_Rb_tree_nodeIS2_E
	movq	56(%rbp), %rdx
	movq	%rdx, %r8
	movq	%rax, %rdx
	movq	%rbx, %rcx
	call	_ZNKSt4lessIiEclERKiS2_
	xorl	$1, %eax
	testb	%al, %al
	je	.L396
	movq	40(%rbp), %rax
	movq	%rax, 48(%rbp)
	movq	40(%rbp), %rax
	movq	%rax, %rcx
	call	_ZNSt8_Rb_treeIiSt4pairIKiiESt10_Select1stIS2_ESt4lessIiESaIS2_EE7_S_leftEPSt18_Rb_tree_node_base
	movq	%rax, 40(%rbp)
	jmp	.L395
.L396:
	movq	40(%rbp), %rax
	movq	%rax, %rcx
	call	_ZNSt8_Rb_treeIiSt4pairIKiiESt10_Select1stIS2_ESt4lessIiESaIS2_EE8_S_rightEPSt18_Rb_tree_node_base
	movq	%rax, 40(%rbp)
.L395:
	cmpq	$0, 40(%rbp)
	jne	.L397
	movq	48(%rbp), %rdx
	leaq	-8(%rbp), %rax
	movq	%rax, %rcx
	call	_ZNSt17_Rb_tree_iteratorISt4pairIKiiEEC1EPSt18_Rb_tree_node_base
	movq	-8(%rbp), %rax
	addq	$56, %rsp
	popq	%rbx
	popq	%rbp
	ret
	.seh_endproc
	.section	.text$_ZN9__gnu_cxx16__aligned_membufISt4pairIKiiEE6_M_ptrEv,"x"
	.linkonce discard
	.align 2
	.globl	_ZN9__gnu_cxx16__aligned_membufISt4pairIKiiEE6_M_ptrEv
	.def	_ZN9__gnu_cxx16__aligned_membufISt4pairIKiiEE6_M_ptrEv;	.scl	2;	.type	32;	.endef
	.seh_proc	_ZN9__gnu_cxx16__aligned_membufISt4pairIKiiEE6_M_ptrEv
_ZN9__gnu_cxx16__aligned_membufISt4pairIKiiEE6_M_ptrEv:
.LFB11411:
	pushq	%rbp
	.seh_pushreg	%rbp
	movq	%rsp, %rbp
	.seh_setframe	%rbp, 0
	subq	$32, %rsp
	.seh_stackalloc	32
	.seh_endprologue
	movq	%rcx, 16(%rbp)
	movq	16(%rbp), %rax
	movq	%rax, %rcx
	call	_ZN9__gnu_cxx16__aligned_membufISt4pairIKiiEE7_M_addrEv
	addq	$32, %rsp
	popq	%rbp
	ret
	.seh_endproc
	.section	.text$_ZNSt8_Rb_treeIiSt4pairIKiiESt10_Select1stIS2_ESt4lessIiESaIS2_EE14_M_create_nodeIJRKSt21piecewise_construct_tSt5tupleIJRS1_EESD_IJEEEEEPSt13_Rb_tree_nodeIS2_EDpOT_,"x"
	.linkonce discard
	.align 2
	.globl	_ZNSt8_Rb_treeIiSt4pairIKiiESt10_Select1stIS2_ESt4lessIiESaIS2_EE14_M_create_nodeIJRKSt21piecewise_construct_tSt5tupleIJRS1_EESD_IJEEEEEPSt13_Rb_tree_nodeIS2_EDpOT_
	.def	_ZNSt8_Rb_treeIiSt4pairIKiiESt10_Select1stIS2_ESt4lessIiESaIS2_EE14_M_create_nodeIJRKSt21piecewise_construct_tSt5tupleIJRS1_EESD_IJEEEEEPSt13_Rb_tree_nodeIS2_EDpOT_;	.scl	2;	.type	32;	.endef
	.seh_proc	_ZNSt8_Rb_treeIiSt4pairIKiiESt10_Select1stIS2_ESt4lessIiESaIS2_EE14_M_create_nodeIJRKSt21piecewise_construct_tSt5tupleIJRS1_EESD_IJEEEEEPSt13_Rb_tree_nodeIS2_EDpOT_
_ZNSt8_Rb_treeIiSt4pairIKiiESt10_Select1stIS2_ESt4lessIiESaIS2_EE14_M_create_nodeIJRKSt21piecewise_construct_tSt5tupleIJRS1_EESD_IJEEEEEPSt13_Rb_tree_nodeIS2_EDpOT_:
.LFB11412:
	pushq	%rbp
	.seh_pushreg	%rbp
	pushq	%rsi
	.seh_pushreg	%rsi
	pushq	%rbx
	.seh_pushreg	%rbx
	subq	$64, %rsp
	.seh_stackalloc	64
	leaq	64(%rsp), %rbp
	.seh_setframe	%rbp, 64
	.seh_endprologue
	movq	%rcx, 32(%rbp)
	movq	%rdx, 40(%rbp)
	movq	%r8, 48(%rbp)
	movq	%r9, 56(%rbp)
	movq	32(%rbp), %rax
	movq	%rax, %rcx
	call	_ZNSt8_Rb_treeIiSt4pairIKiiESt10_Select1stIS2_ESt4lessIiESaIS2_EE11_M_get_nodeEv
	movq	%rax, -8(%rbp)
	movq	56(%rbp), %rax
	movq	%rax, %rcx
	call	_ZSt7forwardISt5tupleIJEEEOT_RNSt16remove_referenceIS2_E4typeE
	movq	%rax, %rbx
	movq	48(%rbp), %rax
	movq	%rax, %rcx
	call	_ZSt7forwardISt5tupleIJRKiEEEOT_RNSt16remove_referenceIS4_E4typeE
	movq	%rax, %rsi
	movq	40(%rbp), %rax
	movq	%rax, %rcx
	call	_ZSt7forwardIRKSt21piecewise_construct_tEOT_RNSt16remove_referenceIS3_E4typeE
	movq	%rax, %rcx
	movq	-8(%rbp), %rdx
	movq	32(%rbp), %rax
	movq	%rbx, 32(%rsp)
	movq	%rsi, %r9
	movq	%rcx, %r8
	movq	%rax, %rcx
	call	_ZNSt8_Rb_treeIiSt4pairIKiiESt10_Select1stIS2_ESt4lessIiESaIS2_EE17_M_construct_nodeIJRKSt21piecewise_construct_tSt5tupleIJRS1_EESD_IJEEEEEvPSt13_Rb_tree_nodeIS2_EDpOT_
	movq	-8(%rbp), %rax
	addq	$64, %rsp
	popq	%rbx
	popq	%rsi
	popq	%rbp
	ret
	.seh_endproc
	.section	.text$_ZNSt8_Rb_treeIiSt4pairIKiiESt10_Select1stIS2_ESt4lessIiESaIS2_EE12_M_drop_nodeEPSt13_Rb_tree_nodeIS2_E,"x"
	.linkonce discard
	.align 2
	.globl	_ZNSt8_Rb_treeIiSt4pairIKiiESt10_Select1stIS2_ESt4lessIiESaIS2_EE12_M_drop_nodeEPSt13_Rb_tree_nodeIS2_E
	.def	_ZNSt8_Rb_treeIiSt4pairIKiiESt10_Select1stIS2_ESt4lessIiESaIS2_EE12_M_drop_nodeEPSt13_Rb_tree_nodeIS2_E;	.scl	2;	.type	32;	.endef
	.seh_proc	_ZNSt8_Rb_treeIiSt4pairIKiiESt10_Select1stIS2_ESt4lessIiESaIS2_EE12_M_drop_nodeEPSt13_Rb_tree_nodeIS2_E
_ZNSt8_Rb_treeIiSt4pairIKiiESt10_Select1stIS2_ESt4lessIiESaIS2_EE12_M_drop_nodeEPSt13_Rb_tree_nodeIS2_E:
.LFB11413:
	pushq	%rbp
	.seh_pushreg	%rbp
	movq	%rsp, %rbp
	.seh_setframe	%rbp, 0
	subq	$32, %rsp
	.seh_stackalloc	32
	.seh_endprologue
	movq	%rcx, 16(%rbp)
	movq	%rdx, 24(%rbp)
	movq	24(%rbp), %rdx
	movq	16(%rbp), %rax
	movq	%rax, %rcx
	call	_ZNSt8_Rb_treeIiSt4pairIKiiESt10_Select1stIS2_ESt4lessIiESaIS2_EE15_M_destroy_nodeEPSt13_Rb_tree_nodeIS2_E
	movq	24(%rbp), %rdx
	movq	16(%rbp), %rax
	movq	%rax, %rcx
	call	_ZNSt8_Rb_treeIiSt4pairIKiiESt10_Select1stIS2_ESt4lessIiESaIS2_EE11_M_put_nodeEPSt13_Rb_tree_nodeIS2_E
	nop
	addq	$32, %rsp
	popq	%rbp
	ret
	.seh_endproc
	.section	.text$_ZNKSt23_Rb_tree_const_iteratorISt4pairIKiiEE13_M_const_castEv,"x"
	.linkonce discard
	.align 2
	.globl	_ZNKSt23_Rb_tree_const_iteratorISt4pairIKiiEE13_M_const_castEv
	.def	_ZNKSt23_Rb_tree_const_iteratorISt4pairIKiiEE13_M_const_castEv;	.scl	2;	.type	32;	.endef
	.seh_proc	_ZNKSt23_Rb_tree_const_iteratorISt4pairIKiiEE13_M_const_castEv
_ZNKSt23_Rb_tree_const_iteratorISt4pairIKiiEE13_M_const_castEv:
.LFB11414:
	pushq	%rbp
	.seh_pushreg	%rbp
	movq	%rsp, %rbp
	.seh_setframe	%rbp, 0
	subq	$48, %rsp
	.seh_stackalloc	48
	.seh_endprologue
	movq	%rcx, 16(%rbp)
	movq	16(%rbp), %rax
	movq	(%rax), %rdx
	leaq	-8(%rbp), %rax
	movq	%rax, %rcx
	call	_ZNSt17_Rb_tree_iteratorISt4pairIKiiEEC1EPSt18_Rb_tree_node_base
	movq	-8(%rbp), %rax
	addq	$48, %rsp
	popq	%rbp
	ret
	.seh_endproc
	.section	.text$_ZNKSt8_Rb_treeIiSt4pairIKiiESt10_Select1stIS2_ESt4lessIiESaIS2_EE4sizeEv,"x"
	.linkonce discard
	.align 2
	.globl	_ZNKSt8_Rb_treeIiSt4pairIKiiESt10_Select1stIS2_ESt4lessIiESaIS2_EE4sizeEv
	.def	_ZNKSt8_Rb_treeIiSt4pairIKiiESt10_Select1stIS2_ESt4lessIiESaIS2_EE4sizeEv;	.scl	2;	.type	32;	.endef
	.seh_proc	_ZNKSt8_Rb_treeIiSt4pairIKiiESt10_Select1stIS2_ESt4lessIiESaIS2_EE4sizeEv
_ZNKSt8_Rb_treeIiSt4pairIKiiESt10_Select1stIS2_ESt4lessIiESaIS2_EE4sizeEv:
.LFB11415:
	pushq	%rbp
	.seh_pushreg	%rbp
	movq	%rsp, %rbp
	.seh_setframe	%rbp, 0
	.seh_endprologue
	movq	%rcx, 16(%rbp)
	movq	16(%rbp), %rax
	movq	40(%rax), %rax
	popq	%rbp
	ret
	.seh_endproc
	.section	.text$_ZNSt8_Rb_treeIiSt4pairIKiiESt10_Select1stIS2_ESt4lessIiESaIS2_EE12_M_rightmostEv,"x"
	.linkonce discard
	.align 2
	.globl	_ZNSt8_Rb_treeIiSt4pairIKiiESt10_Select1stIS2_ESt4lessIiESaIS2_EE12_M_rightmostEv
	.def	_ZNSt8_Rb_treeIiSt4pairIKiiESt10_Select1stIS2_ESt4lessIiESaIS2_EE12_M_rightmostEv;	.scl	2;	.type	32;	.endef
	.seh_proc	_ZNSt8_Rb_treeIiSt4pairIKiiESt10_Select1stIS2_ESt4lessIiESaIS2_EE12_M_rightmostEv
_ZNSt8_Rb_treeIiSt4pairIKiiESt10_Select1stIS2_ESt4lessIiESaIS2_EE12_M_rightmostEv:
.LFB11416:
	pushq	%rbp
	.seh_pushreg	%rbp
	movq	%rsp, %rbp
	.seh_setframe	%rbp, 0
	.seh_endprologue
	movq	%rcx, 16(%rbp)
	movq	16(%rbp), %rax
	addq	$32, %rax
	popq	%rbp
	ret
	.seh_endproc
	.section	.text$_ZNSt8_Rb_treeIiSt4pairIKiiESt10_Select1stIS2_ESt4lessIiESaIS2_EE6_S_keyEPKSt18_Rb_tree_node_base,"x"
	.linkonce discard
	.globl	_ZNSt8_Rb_treeIiSt4pairIKiiESt10_Select1stIS2_ESt4lessIiESaIS2_EE6_S_keyEPKSt18_Rb_tree_node_base
	.def	_ZNSt8_Rb_treeIiSt4pairIKiiESt10_Select1stIS2_ESt4lessIiESaIS2_EE6_S_keyEPKSt18_Rb_tree_node_base;	.scl	2;	.type	32;	.endef
	.seh_proc	_ZNSt8_Rb_treeIiSt4pairIKiiESt10_Select1stIS2_ESt4lessIiESaIS2_EE6_S_keyEPKSt18_Rb_tree_node_base
_ZNSt8_Rb_treeIiSt4pairIKiiESt10_Select1stIS2_ESt4lessIiESaIS2_EE6_S_keyEPKSt18_Rb_tree_node_base:
.LFB11417:
	pushq	%rbp
	.seh_pushreg	%rbp
	movq	%rsp, %rbp
	.seh_setframe	%rbp, 0
	subq	$32, %rsp
	.seh_stackalloc	32
	.seh_endprologue
	movq	%rcx, 16(%rbp)
	movq	16(%rbp), %rax
	movq	%rax, %rcx
	call	_ZNSt8_Rb_treeIiSt4pairIKiiESt10_Select1stIS2_ESt4lessIiESaIS2_EE6_S_keyEPKSt13_Rb_tree_nodeIS2_E
	addq	$32, %rsp
	popq	%rbp
	ret
	.seh_endproc
	.section	.text$_ZNSt8_Rb_treeIiSt4pairIKiiESt10_Select1stIS2_ESt4lessIiESaIS2_EE24_M_get_insert_unique_posERS1_,"x"
	.linkonce discard
	.align 2
	.globl	_ZNSt8_Rb_treeIiSt4pairIKiiESt10_Select1stIS2_ESt4lessIiESaIS2_EE24_M_get_insert_unique_posERS1_
	.def	_ZNSt8_Rb_treeIiSt4pairIKiiESt10_Select1stIS2_ESt4lessIiESaIS2_EE24_M_get_insert_unique_posERS1_;	.scl	2;	.type	32;	.endef
	.seh_proc	_ZNSt8_Rb_treeIiSt4pairIKiiESt10_Select1stIS2_ESt4lessIiESaIS2_EE24_M_get_insert_unique_posERS1_
_ZNSt8_Rb_treeIiSt4pairIKiiESt10_Select1stIS2_ESt4lessIiESaIS2_EE24_M_get_insert_unique_posERS1_:
.LFB11418:
	pushq	%rbp
	.seh_pushreg	%rbp
	pushq	%rbx
	.seh_pushreg	%rbx
	subq	$88, %rsp
	.seh_stackalloc	88
	leaq	80(%rsp), %rbp
	.seh_setframe	%rbp, 80
	.seh_endprologue
	movq	%rcx, 32(%rbp)
	movq	%rdx, 40(%rbp)
	movq	%r8, 48(%rbp)
	movq	40(%rbp), %rax
	movq	%rax, %rcx
	call	_ZNSt8_Rb_treeIiSt4pairIKiiESt10_Select1stIS2_ESt4lessIiESaIS2_EE8_M_beginEv
	movq	%rax, -32(%rbp)
	movq	40(%rbp), %rax
	movq	%rax, %rcx
	call	_ZNSt8_Rb_treeIiSt4pairIKiiESt10_Select1stIS2_ESt4lessIiESaIS2_EE6_M_endEv
	movq	%rax, -40(%rbp)
	movb	$1, -1(%rbp)
	jmp	.L413
.L416:
	movq	-32(%rbp), %rax
	movq	%rax, -40(%rbp)
	movq	40(%rbp), %rbx
	movq	-32(%rbp), %rax
	movq	%rax, %rcx
	call	_ZNSt8_Rb_treeIiSt4pairIKiiESt10_Select1stIS2_ESt4lessIiESaIS2_EE6_S_keyEPKSt13_Rb_tree_nodeIS2_E
	movq	%rax, %rdx
	movq	48(%rbp), %rax
	movq	%rdx, %r8
	movq	%rax, %rdx
	movq	%rbx, %rcx
	call	_ZNKSt4lessIiEclERKiS2_
	movb	%al, -1(%rbp)
	cmpb	$0, -1(%rbp)
	je	.L414
	movq	-32(%rbp), %rax
	movq	%rax, %rcx
	call	_ZNSt8_Rb_treeIiSt4pairIKiiESt10_Select1stIS2_ESt4lessIiESaIS2_EE7_S_leftEPSt18_Rb_tree_node_base
	jmp	.L415
.L414:
	movq	-32(%rbp), %rax
	movq	%rax, %rcx
	call	_ZNSt8_Rb_treeIiSt4pairIKiiESt10_Select1stIS2_ESt4lessIiESaIS2_EE8_S_rightEPSt18_Rb_tree_node_base
.L415:
	movq	%rax, -32(%rbp)
.L413:
	movq	-32(%rbp), %rax
	testq	%rax, %rax
	jne	.L416
	movq	-40(%rbp), %rdx
	leaq	-48(%rbp), %rax
	movq	%rax, %rcx
	call	_ZNSt17_Rb_tree_iteratorISt4pairIKiiEEC1EPSt18_Rb_tree_node_base
	cmpb	$0, -1(%rbp)
	je	.L417
	movq	40(%rbp), %rax
	movq	%rax, %rcx
	call	_ZNSt8_Rb_treeIiSt4pairIKiiESt10_Select1stIS2_ESt4lessIiESaIS2_EE5beginEv
	movq	%rax, -24(%rbp)
	leaq	-24(%rbp), %rdx
	leaq	-48(%rbp), %rax
	movq	%rax, %rcx
	call	_ZSteqRKSt17_Rb_tree_iteratorISt4pairIKiiEES5_
	testb	%al, %al
	je	.L418
	leaq	-40(%rbp), %rdx
	leaq	-32(%rbp), %rax
	movq	32(%rbp), %rcx
	movq	%rdx, %r8
	movq	%rax, %rdx
	call	_ZNSt4pairIPSt18_Rb_tree_node_baseS1_EC1IRPSt13_Rb_tree_nodeIS_IKiiEERS1_Lb1EEEOT_OT0_
	jmp	.L421
.L418:
	leaq	-48(%rbp), %rax
	movq	%rax, %rcx
	call	_ZNSt17_Rb_tree_iteratorISt4pairIKiiEEmmEv
.L417:
	movq	40(%rbp), %rbx
	movq	-48(%rbp), %rax
	movq	%rax, %rcx
	call	_ZNSt8_Rb_treeIiSt4pairIKiiESt10_Select1stIS2_ESt4lessIiESaIS2_EE6_S_keyEPKSt18_Rb_tree_node_base
	movq	48(%rbp), %rdx
	movq	%rdx, %r8
	movq	%rax, %rdx
	movq	%rbx, %rcx
	call	_ZNKSt4lessIiEclERKiS2_
	testb	%al, %al
	je	.L420
	leaq	-40(%rbp), %rdx
	leaq	-32(%rbp), %rax
	movq	32(%rbp), %rcx
	movq	%rdx, %r8
	movq	%rax, %rdx
	call	_ZNSt4pairIPSt18_Rb_tree_node_baseS1_EC1IRPSt13_Rb_tree_nodeIS_IKiiEERS1_Lb1EEEOT_OT0_
	jmp	.L421
.L420:
	movq	$0, -16(%rbp)
	leaq	-16(%rbp), %rdx
	leaq	-48(%rbp), %rax
	movq	32(%rbp), %rcx
	movq	%rdx, %r8
	movq	%rax, %rdx
	call	_ZNSt4pairIPSt18_Rb_tree_node_baseS1_EC1IS1_S1_Lb1EEERKS1_S5_
.L421:
	movq	32(%rbp), %rax
	addq	$88, %rsp
	popq	%rbx
	popq	%rbp
	ret
	.seh_endproc
	.section	.text$_ZNSt8_Rb_treeIiSt4pairIKiiESt10_Select1stIS2_ESt4lessIiESaIS2_EE11_M_leftmostEv,"x"
	.linkonce discard
	.align 2
	.globl	_ZNSt8_Rb_treeIiSt4pairIKiiESt10_Select1stIS2_ESt4lessIiESaIS2_EE11_M_leftmostEv
	.def	_ZNSt8_Rb_treeIiSt4pairIKiiESt10_Select1stIS2_ESt4lessIiESaIS2_EE11_M_leftmostEv;	.scl	2;	.type	32;	.endef
	.seh_proc	_ZNSt8_Rb_treeIiSt4pairIKiiESt10_Select1stIS2_ESt4lessIiESaIS2_EE11_M_leftmostEv
_ZNSt8_Rb_treeIiSt4pairIKiiESt10_Select1stIS2_ESt4lessIiESaIS2_EE11_M_leftmostEv:
.LFB11421:
	pushq	%rbp
	.seh_pushreg	%rbp
	movq	%rsp, %rbp
	.seh_setframe	%rbp, 0
	.seh_endprologue
	movq	%rcx, 16(%rbp)
	movq	16(%rbp), %rax
	addq	$24, %rax
	popq	%rbp
	ret
	.seh_endproc
	.section	.text$_ZNSt17_Rb_tree_iteratorISt4pairIKiiEEmmEv,"x"
	.linkonce discard
	.align 2
	.globl	_ZNSt17_Rb_tree_iteratorISt4pairIKiiEEmmEv
	.def	_ZNSt17_Rb_tree_iteratorISt4pairIKiiEEmmEv;	.scl	2;	.type	32;	.endef
	.seh_proc	_ZNSt17_Rb_tree_iteratorISt4pairIKiiEEmmEv
_ZNSt17_Rb_tree_iteratorISt4pairIKiiEEmmEv:
.LFB11422:
	pushq	%rbp
	.seh_pushreg	%rbp
	movq	%rsp, %rbp
	.seh_setframe	%rbp, 0
	subq	$32, %rsp
	.seh_stackalloc	32
	.seh_endprologue
	movq	%rcx, 16(%rbp)
	movq	16(%rbp), %rax
	movq	(%rax), %rax
	movq	%rax, %rcx
	call	_ZSt18_Rb_tree_decrementPSt18_Rb_tree_node_base
	movq	16(%rbp), %rdx
	movq	%rax, (%rdx)
	movq	16(%rbp), %rax
	addq	$32, %rsp
	popq	%rbp
	ret
	.seh_endproc
	.section	.text$_ZNSt8_Rb_treeIiSt4pairIKiiESt10_Select1stIS2_ESt4lessIiESaIS2_EE8_S_rightEPSt18_Rb_tree_node_base,"x"
	.linkonce discard
	.globl	_ZNSt8_Rb_treeIiSt4pairIKiiESt10_Select1stIS2_ESt4lessIiESaIS2_EE8_S_rightEPSt18_Rb_tree_node_base
	.def	_ZNSt8_Rb_treeIiSt4pairIKiiESt10_Select1stIS2_ESt4lessIiESaIS2_EE8_S_rightEPSt18_Rb_tree_node_base;	.scl	2;	.type	32;	.endef
	.seh_proc	_ZNSt8_Rb_treeIiSt4pairIKiiESt10_Select1stIS2_ESt4lessIiESaIS2_EE8_S_rightEPSt18_Rb_tree_node_base
_ZNSt8_Rb_treeIiSt4pairIKiiESt10_Select1stIS2_ESt4lessIiESaIS2_EE8_S_rightEPSt18_Rb_tree_node_base:
.LFB11423:
	pushq	%rbp
	.seh_pushreg	%rbp
	movq	%rsp, %rbp
	.seh_setframe	%rbp, 0
	.seh_endprologue
	movq	%rcx, 16(%rbp)
	movq	16(%rbp), %rax
	movq	24(%rax), %rax
	popq	%rbp
	ret
	.seh_endproc
	.section	.text$_ZNSt17_Rb_tree_iteratorISt4pairIKiiEEppEv,"x"
	.linkonce discard
	.align 2
	.globl	_ZNSt17_Rb_tree_iteratorISt4pairIKiiEEppEv
	.def	_ZNSt17_Rb_tree_iteratorISt4pairIKiiEEppEv;	.scl	2;	.type	32;	.endef
	.seh_proc	_ZNSt17_Rb_tree_iteratorISt4pairIKiiEEppEv
_ZNSt17_Rb_tree_iteratorISt4pairIKiiEEppEv:
.LFB11424:
	pushq	%rbp
	.seh_pushreg	%rbp
	movq	%rsp, %rbp
	.seh_setframe	%rbp, 0
	subq	$32, %rsp
	.seh_stackalloc	32
	.seh_endprologue
	movq	%rcx, 16(%rbp)
	movq	16(%rbp), %rax
	movq	(%rax), %rax
	movq	%rax, %rcx
	call	_ZSt18_Rb_tree_incrementPSt18_Rb_tree_node_base
	movq	16(%rbp), %rdx
	movq	%rax, (%rdx)
	movq	16(%rbp), %rax
	addq	$32, %rsp
	popq	%rbp
	ret
	.seh_endproc
	.section	.text$_ZNSt8_Rb_treeIiSt4pairIKiiESt10_Select1stIS2_ESt4lessIiESaIS2_EE6_S_keyEPKSt13_Rb_tree_nodeIS2_E,"x"
	.linkonce discard
	.globl	_ZNSt8_Rb_treeIiSt4pairIKiiESt10_Select1stIS2_ESt4lessIiESaIS2_EE6_S_keyEPKSt13_Rb_tree_nodeIS2_E
	.def	_ZNSt8_Rb_treeIiSt4pairIKiiESt10_Select1stIS2_ESt4lessIiESaIS2_EE6_S_keyEPKSt13_Rb_tree_nodeIS2_E;	.scl	2;	.type	32;	.endef
	.seh_proc	_ZNSt8_Rb_treeIiSt4pairIKiiESt10_Select1stIS2_ESt4lessIiESaIS2_EE6_S_keyEPKSt13_Rb_tree_nodeIS2_E
_ZNSt8_Rb_treeIiSt4pairIKiiESt10_Select1stIS2_ESt4lessIiESaIS2_EE6_S_keyEPKSt13_Rb_tree_nodeIS2_E:
.LFB11425:
	pushq	%rbp
	.seh_pushreg	%rbp
	movq	%rsp, %rbp
	.seh_setframe	%rbp, 0
	subq	$48, %rsp
	.seh_stackalloc	48
	.seh_endprologue
	movq	%rcx, 16(%rbp)
	movq	16(%rbp), %rax
	movq	%rax, %rcx
	call	_ZNKSt13_Rb_tree_nodeISt4pairIKiiEE9_M_valptrEv
	movq	%rax, %rdx
	leaq	-1(%rbp), %rax
	movq	%rax, %rcx
	call	_ZNKSt10_Select1stISt4pairIKiiEEclERKS2_
	addq	$48, %rsp
	popq	%rbp
	ret
	.seh_endproc
	.section	.text$_ZNSt8_Rb_treeIiSt4pairIKiiESt10_Select1stIS2_ESt4lessIiESaIS2_EE14_M_insert_nodeEPSt18_Rb_tree_node_baseSA_PSt13_Rb_tree_nodeIS2_E,"x"
	.linkonce discard
	.align 2
	.globl	_ZNSt8_Rb_treeIiSt4pairIKiiESt10_Select1stIS2_ESt4lessIiESaIS2_EE14_M_insert_nodeEPSt18_Rb_tree_node_baseSA_PSt13_Rb_tree_nodeIS2_E
	.def	_ZNSt8_Rb_treeIiSt4pairIKiiESt10_Select1stIS2_ESt4lessIiESaIS2_EE14_M_insert_nodeEPSt18_Rb_tree_node_baseSA_PSt13_Rb_tree_nodeIS2_E;	.scl	2;	.type	32;	.endef
	.seh_proc	_ZNSt8_Rb_treeIiSt4pairIKiiESt10_Select1stIS2_ESt4lessIiESaIS2_EE14_M_insert_nodeEPSt18_Rb_tree_node_baseSA_PSt13_Rb_tree_nodeIS2_E
_ZNSt8_Rb_treeIiSt4pairIKiiESt10_Select1stIS2_ESt4lessIiESaIS2_EE14_M_insert_nodeEPSt18_Rb_tree_node_baseSA_PSt13_Rb_tree_nodeIS2_E:
.LFB11426:
	pushq	%rbp
	.seh_pushreg	%rbp
	pushq	%rsi
	.seh_pushreg	%rsi
	pushq	%rbx
	.seh_pushreg	%rbx
	subq	$48, %rsp
	.seh_stackalloc	48
	leaq	48(%rsp), %rbp
	.seh_setframe	%rbp, 48
	.seh_endprologue
	movq	%rcx, 32(%rbp)
	movq	%rdx, 40(%rbp)
	movq	%r8, 48(%rbp)
	movq	%r9, 56(%rbp)
	cmpq	$0, 40(%rbp)
	jne	.L433
	movq	32(%rbp), %rax
	movq	%rax, %rcx
	call	_ZNSt8_Rb_treeIiSt4pairIKiiESt10_Select1stIS2_ESt4lessIiESaIS2_EE6_M_endEv
	cmpq	%rax, 48(%rbp)
	je	.L433
	movq	32(%rbp), %rbx
	movq	48(%rbp), %rax
	movq	%rax, %rcx
	call	_ZNSt8_Rb_treeIiSt4pairIKiiESt10_Select1stIS2_ESt4lessIiESaIS2_EE6_S_keyEPKSt18_Rb_tree_node_base
	movq	%rax, %rsi
	movq	56(%rbp), %rax
	movq	%rax, %rcx
	call	_ZNSt8_Rb_treeIiSt4pairIKiiESt10_Select1stIS2_ESt4lessIiESaIS2_EE6_S_keyEPKSt13_Rb_tree_nodeIS2_E
	movq	%rsi, %r8
	movq	%rax, %rdx
	movq	%rbx, %rcx
	call	_ZNKSt4lessIiEclERKiS2_
	testb	%al, %al
	je	.L434
.L433:
	movl	$1, %eax
	jmp	.L435
.L434:
	movl	$0, %eax
.L435:
	movb	%al, -1(%rbp)
	movq	32(%rbp), %rax
	leaq	8(%rax), %r8
	movzbl	-1(%rbp), %eax
	movq	48(%rbp), %rcx
	movq	56(%rbp), %rdx
	movq	%r8, %r9
	movq	%rcx, %r8
	movl	%eax, %ecx
	call	_ZSt29_Rb_tree_insert_and_rebalancebPSt18_Rb_tree_node_baseS0_RS_
	movq	32(%rbp), %rax
	movq	40(%rax), %rax
	leaq	1(%rax), %rdx
	movq	32(%rbp), %rax
	movq	%rdx, 40(%rax)
	movq	56(%rbp), %rdx
	leaq	-16(%rbp), %rax
	movq	%rax, %rcx
	call	_ZNSt17_Rb_tree_iteratorISt4pairIKiiEEC1EPSt18_Rb_tree_node_base
	movq	-16(%rbp), %rax
	addq	$48, %rsp
	popq	%rbx
	popq	%rsi
	popq	%rbp
	ret
	.seh_endproc
	.section	.text$_ZNSt8_Rb_treeIiSt4pairIKiSt3mapIiiSt4lessIiESaIS0_IS1_iEEEESt10_Select1stIS8_ES4_SaIS8_EE21_M_get_Node_allocatorEv,"x"
	.linkonce discard
	.align 2
	.globl	_ZNSt8_Rb_treeIiSt4pairIKiSt3mapIiiSt4lessIiESaIS0_IS1_iEEEESt10_Select1stIS8_ES4_SaIS8_EE21_M_get_Node_allocatorEv
	.def	_ZNSt8_Rb_treeIiSt4pairIKiSt3mapIiiSt4lessIiESaIS0_IS1_iEEEESt10_Select1stIS8_ES4_SaIS8_EE21_M_get_Node_allocatorEv;	.scl	2;	.type	32;	.endef
	.seh_proc	_ZNSt8_Rb_treeIiSt4pairIKiSt3mapIiiSt4lessIiESaIS0_IS1_iEEEESt10_Select1stIS8_ES4_SaIS8_EE21_M_get_Node_allocatorEv
_ZNSt8_Rb_treeIiSt4pairIKiSt3mapIiiSt4lessIiESaIS0_IS1_iEEEESt10_Select1stIS8_ES4_SaIS8_EE21_M_get_Node_allocatorEv:
.LFB11460:
	pushq	%rbp
	.seh_pushreg	%rbp
	movq	%rsp, %rbp
	.seh_setframe	%rbp, 0
	.seh_endprologue
	movq	%rcx, 16(%rbp)
	movq	16(%rbp), %rax
	popq	%rbp
	ret
	.seh_endproc
	.section	.text$_ZNSt16allocator_traitsISaISt13_Rb_tree_nodeISt4pairIKiSt3mapIiiSt4lessIiESaIS1_IS2_iEEEEEEE7destroyIS9_EEvRSB_PT_,"x"
	.linkonce discard
	.globl	_ZNSt16allocator_traitsISaISt13_Rb_tree_nodeISt4pairIKiSt3mapIiiSt4lessIiESaIS1_IS2_iEEEEEEE7destroyIS9_EEvRSB_PT_
	.def	_ZNSt16allocator_traitsISaISt13_Rb_tree_nodeISt4pairIKiSt3mapIiiSt4lessIiESaIS1_IS2_iEEEEEEE7destroyIS9_EEvRSB_PT_;	.scl	2;	.type	32;	.endef
	.seh_proc	_ZNSt16allocator_traitsISaISt13_Rb_tree_nodeISt4pairIKiSt3mapIiiSt4lessIiESaIS1_IS2_iEEEEEEE7destroyIS9_EEvRSB_PT_
_ZNSt16allocator_traitsISaISt13_Rb_tree_nodeISt4pairIKiSt3mapIiiSt4lessIiESaIS1_IS2_iEEEEEEE7destroyIS9_EEvRSB_PT_:
.LFB11461:
	pushq	%rbp
	.seh_pushreg	%rbp
	movq	%rsp, %rbp
	.seh_setframe	%rbp, 0
	subq	$32, %rsp
	.seh_stackalloc	32
	.seh_endprologue
	movq	%rcx, 16(%rbp)
	movq	%rdx, 24(%rbp)
	movq	24(%rbp), %rdx
	movq	16(%rbp), %rax
	movq	%rax, %rcx
	call	_ZNSt15__new_allocatorISt13_Rb_tree_nodeISt4pairIKiSt3mapIiiSt4lessIiESaIS1_IS2_iEEEEEE7destroyIS9_EEvPT_
	nop
	addq	$32, %rsp
	popq	%rbp
	ret
	.seh_endproc
	.section	.text$_ZNSt16allocator_traitsISaISt13_Rb_tree_nodeISt4pairIKiSt3mapIiiSt4lessIiESaIS1_IS2_iEEEEEEE10deallocateERSB_PSA_y,"x"
	.linkonce discard
	.globl	_ZNSt16allocator_traitsISaISt13_Rb_tree_nodeISt4pairIKiSt3mapIiiSt4lessIiESaIS1_IS2_iEEEEEEE10deallocateERSB_PSA_y
	.def	_ZNSt16allocator_traitsISaISt13_Rb_tree_nodeISt4pairIKiSt3mapIiiSt4lessIiESaIS1_IS2_iEEEEEEE10deallocateERSB_PSA_y;	.scl	2;	.type	32;	.endef
	.seh_proc	_ZNSt16allocator_traitsISaISt13_Rb_tree_nodeISt4pairIKiSt3mapIiiSt4lessIiESaIS1_IS2_iEEEEEEE10deallocateERSB_PSA_y
_ZNSt16allocator_traitsISaISt13_Rb_tree_nodeISt4pairIKiSt3mapIiiSt4lessIiESaIS1_IS2_iEEEEEEE10deallocateERSB_PSA_y:
.LFB11462:
	pushq	%rbp
	.seh_pushreg	%rbp
	movq	%rsp, %rbp
	.seh_setframe	%rbp, 0
	subq	$32, %rsp
	.seh_stackalloc	32
	.seh_endprologue
	movq	%rcx, 16(%rbp)
	movq	%rdx, 24(%rbp)
	movq	%r8, 32(%rbp)
	movq	32(%rbp), %rcx
	movq	24(%rbp), %rdx
	movq	16(%rbp), %rax
	movq	%rcx, %r8
	movq	%rax, %rcx
	call	_ZNSt15__new_allocatorISt13_Rb_tree_nodeISt4pairIKiSt3mapIiiSt4lessIiESaIS1_IS2_iEEEEEE10deallocateEPSA_y
	nop
	addq	$32, %rsp
	popq	%rbp
	ret
	.seh_endproc
	.section	.text$_ZNSt6vectorIiSaIiEE11_S_max_sizeERKS0_,"x"
	.linkonce discard
	.globl	_ZNSt6vectorIiSaIiEE11_S_max_sizeERKS0_
	.def	_ZNSt6vectorIiSaIiEE11_S_max_sizeERKS0_;	.scl	2;	.type	32;	.endef
	.seh_proc	_ZNSt6vectorIiSaIiEE11_S_max_sizeERKS0_
_ZNSt6vectorIiSaIiEE11_S_max_sizeERKS0_:
.LFB11463:
	pushq	%rbp
	.seh_pushreg	%rbp
	movq	%rsp, %rbp
	.seh_setframe	%rbp, 0
	subq	$48, %rsp
	.seh_stackalloc	48
	.seh_endprologue
	movq	%rcx, 16(%rbp)
	movabsq	$2305843009213693951, %rax
	movq	%rax, -8(%rbp)
	movq	16(%rbp), %rax
	movq	%rax, %rcx
	call	_ZNSt16allocator_traitsISaIiEE8max_sizeERKS0_
	movq	%rax, -16(%rbp)
	leaq	-16(%rbp), %rdx
	leaq	-8(%rbp), %rax
	movq	%rax, %rcx
	call	_ZSt3minIyERKT_S2_S2_
	movq	(%rax), %rax
	addq	$48, %rsp
	popq	%rbp
	ret
	.seh_endproc
	.section	.text$_ZNKSt12_Vector_baseIiSaIiEE19_M_get_Tp_allocatorEv,"x"
	.linkonce discard
	.align 2
	.globl	_ZNKSt12_Vector_baseIiSaIiEE19_M_get_Tp_allocatorEv
	.def	_ZNKSt12_Vector_baseIiSaIiEE19_M_get_Tp_allocatorEv;	.scl	2;	.type	32;	.endef
	.seh_proc	_ZNKSt12_Vector_baseIiSaIiEE19_M_get_Tp_allocatorEv
_ZNKSt12_Vector_baseIiSaIiEE19_M_get_Tp_allocatorEv:
.LFB11464:
	pushq	%rbp
	.seh_pushreg	%rbp
	movq	%rsp, %rbp
	.seh_setframe	%rbp, 0
	.seh_endprologue
	movq	%rcx, 16(%rbp)
	movq	16(%rbp), %rax
	popq	%rbp
	ret
	.seh_endproc
	.section	.text$_ZNSt15__new_allocatorIiE8allocateEyPKv,"x"
	.linkonce discard
	.align 2
	.globl	_ZNSt15__new_allocatorIiE8allocateEyPKv
	.def	_ZNSt15__new_allocatorIiE8allocateEyPKv;	.scl	2;	.type	32;	.endef
	.seh_proc	_ZNSt15__new_allocatorIiE8allocateEyPKv
_ZNSt15__new_allocatorIiE8allocateEyPKv:
.LFB11465:
	pushq	%rbp
	.seh_pushreg	%rbp
	movq	%rsp, %rbp
	.seh_setframe	%rbp, 0
	subq	$32, %rsp
	.seh_stackalloc	32
	.seh_endprologue
	movq	%rcx, 16(%rbp)
	movq	%rdx, 24(%rbp)
	movq	%r8, 32(%rbp)
	movq	16(%rbp), %rax
	movq	%rax, %rcx
	call	_ZNKSt15__new_allocatorIiE11_M_max_sizeEv
	cmpq	24(%rbp), %rax
	setb	%al
	movzbl	%al, %eax
	testl	%eax, %eax
	setne	%al
	testb	%al, %al
	je	.L446
	movabsq	$4611686018427387903, %rax
	cmpq	24(%rbp), %rax
	jnb	.L447
	call	_ZSt28__throw_bad_array_new_lengthv
.L447:
	call	_ZSt17__throw_bad_allocv
.L446:
	movq	24(%rbp), %rax
	salq	$2, %rax
	movq	%rax, %rcx
	call	_Znwy
	nop
	addq	$32, %rsp
	popq	%rbp
	ret
	.seh_endproc
	.section	.text$_ZSt12__niter_baseIPiET_S1_,"x"
	.linkonce discard
	.globl	_ZSt12__niter_baseIPiET_S1_
	.def	_ZSt12__niter_baseIPiET_S1_;	.scl	2;	.type	32;	.endef
	.seh_proc	_ZSt12__niter_baseIPiET_S1_
_ZSt12__niter_baseIPiET_S1_:
.LFB11466:
	pushq	%rbp
	.seh_pushreg	%rbp
	movq	%rsp, %rbp
	.seh_setframe	%rbp, 0
	.seh_endprologue
	movq	%rcx, 16(%rbp)
	movq	16(%rbp), %rax
	popq	%rbp
	ret
	.seh_endproc
	.section	.text$_ZSt14__relocate_a_1IiiENSt9enable_ifIXsrSt24__is_bitwise_relocatableIT_vE5valueEPS2_E4typeES4_S4_S4_RSaIT0_E,"x"
	.linkonce discard
	.globl	_ZSt14__relocate_a_1IiiENSt9enable_ifIXsrSt24__is_bitwise_relocatableIT_vE5valueEPS2_E4typeES4_S4_S4_RSaIT0_E
	.def	_ZSt14__relocate_a_1IiiENSt9enable_ifIXsrSt24__is_bitwise_relocatableIT_vE5valueEPS2_E4typeES4_S4_S4_RSaIT0_E;	.scl	2;	.type	32;	.endef
	.seh_proc	_ZSt14__relocate_a_1IiiENSt9enable_ifIXsrSt24__is_bitwise_relocatableIT_vE5valueEPS2_E4typeES4_S4_S4_RSaIT0_E
_ZSt14__relocate_a_1IiiENSt9enable_ifIXsrSt24__is_bitwise_relocatableIT_vE5valueEPS2_E4typeES4_S4_S4_RSaIT0_E:
.LFB11467:
	pushq	%rbp
	.seh_pushreg	%rbp
	movq	%rsp, %rbp
	.seh_setframe	%rbp, 0
	subq	$48, %rsp
	.seh_stackalloc	48
	.seh_endprologue
	movq	%rcx, 16(%rbp)
	movq	%rdx, 24(%rbp)
	movq	%r8, 32(%rbp)
	movq	%r9, 40(%rbp)
	movq	24(%rbp), %rax
	subq	16(%rbp), %rax
	sarq	$2, %rax
	movq	%rax, -8(%rbp)
	cmpq	$0, -8(%rbp)
	jle	.L452
	movq	-8(%rbp), %rax
	leaq	0(,%rax,4), %rcx
	movq	16(%rbp), %rdx
	movq	32(%rbp), %rax
	movq	%rcx, %r8
	movq	%rax, %rcx
	call	memmove
.L452:
	movq	-8(%rbp), %rax
	leaq	0(,%rax,4), %rdx
	movq	32(%rbp), %rax
	addq	%rdx, %rax
	addq	$48, %rsp
	popq	%rbp
	ret
	.seh_endproc
	.text
	.def	_ZSt13__heap_selectIP4nodeN9__gnu_cxx5__ops15_Iter_comp_iterIZ4mainEUlS0_S0_E_EEEvT_S7_S7_T0_;	.scl	3;	.type	32;	.endef
	.seh_proc	_ZSt13__heap_selectIP4nodeN9__gnu_cxx5__ops15_Iter_comp_iterIZ4mainEUlS0_S0_E_EEEvT_S7_S7_T0_
_ZSt13__heap_selectIP4nodeN9__gnu_cxx5__ops15_Iter_comp_iterIZ4mainEUlS0_S0_E_EEEvT_S7_S7_T0_:
.LFB11468:
	pushq	%rbp
	.seh_pushreg	%rbp
	movq	%rsp, %rbp
	.seh_setframe	%rbp, 0
	subq	$48, %rsp
	.seh_stackalloc	48
	.seh_endprologue
	movq	%rcx, 16(%rbp)
	movq	%rdx, 24(%rbp)
	movq	%r8, 32(%rbp)
	leaq	40(%rbp), %rcx
	movq	24(%rbp), %rdx
	movq	16(%rbp), %rax
	movq	%rcx, %r8
	movq	%rax, %rcx
	call	_ZSt11__make_heapIP4nodeN9__gnu_cxx5__ops15_Iter_comp_iterIZ4mainEUlS0_S0_E_EEEvT_S7_RT0_
	movq	24(%rbp), %rax
	movq	%rax, -8(%rbp)
	jmp	.L455
.L457:
	movq	16(%rbp), %rcx
	movq	-8(%rbp), %rdx
	leaq	40(%rbp), %rax
	movq	%rcx, %r8
	movq	%rax, %rcx
	call	_ZN9__gnu_cxx5__ops15_Iter_comp_iterIZ4mainEUl4nodeS2_E_EclIPS2_S6_EEbT_T0_
	testb	%al, %al
	je	.L456
	leaq	40(%rbp), %rcx
	movq	-8(%rbp), %r8
	movq	24(%rbp), %rdx
	movq	16(%rbp), %rax
	movq	%rcx, %r9
	movq	%rax, %rcx
	call	_ZSt10__pop_heapIP4nodeN9__gnu_cxx5__ops15_Iter_comp_iterIZ4mainEUlS0_S0_E_EEEvT_S7_S7_RT0_
.L456:
	addq	$8, -8(%rbp)
.L455:
	movq	-8(%rbp), %rax
	cmpq	32(%rbp), %rax
	jb	.L457
	nop
	nop
	addq	$48, %rsp
	popq	%rbp
	ret
	.seh_endproc
	.def	_ZSt11__sort_heapIP4nodeN9__gnu_cxx5__ops15_Iter_comp_iterIZ4mainEUlS0_S0_E_EEEvT_S7_RT0_;	.scl	3;	.type	32;	.endef
	.seh_proc	_ZSt11__sort_heapIP4nodeN9__gnu_cxx5__ops15_Iter_comp_iterIZ4mainEUlS0_S0_E_EEEvT_S7_RT0_
_ZSt11__sort_heapIP4nodeN9__gnu_cxx5__ops15_Iter_comp_iterIZ4mainEUlS0_S0_E_EEEvT_S7_RT0_:
.LFB11469:
	pushq	%rbp
	.seh_pushreg	%rbp
	movq	%rsp, %rbp
	.seh_setframe	%rbp, 0
	subq	$32, %rsp
	.seh_stackalloc	32
	.seh_endprologue
	movq	%rcx, 16(%rbp)
	movq	%rdx, 24(%rbp)
	movq	%r8, 32(%rbp)
	jmp	.L459
.L460:
	subq	$8, 24(%rbp)
	movq	32(%rbp), %r8
	movq	24(%rbp), %rcx
	movq	24(%rbp), %rdx
	movq	16(%rbp), %rax
	movq	%r8, %r9
	movq	%rcx, %r8
	movq	%rax, %rcx
	call	_ZSt10__pop_heapIP4nodeN9__gnu_cxx5__ops15_Iter_comp_iterIZ4mainEUlS0_S0_E_EEEvT_S7_S7_RT0_
.L459:
	movq	24(%rbp), %rax
	subq	16(%rbp), %rax
	cmpq	$8, %rax
	jg	.L460
	nop
	nop
	addq	$32, %rsp
	popq	%rbp
	ret
	.seh_endproc
	.def	_ZSt22__move_median_to_firstIP4nodeN9__gnu_cxx5__ops15_Iter_comp_iterIZ4mainEUlS0_S0_E_EEEvT_S7_S7_S7_T0_;	.scl	3;	.type	32;	.endef
	.seh_proc	_ZSt22__move_median_to_firstIP4nodeN9__gnu_cxx5__ops15_Iter_comp_iterIZ4mainEUlS0_S0_E_EEEvT_S7_S7_S7_T0_
_ZSt22__move_median_to_firstIP4nodeN9__gnu_cxx5__ops15_Iter_comp_iterIZ4mainEUlS0_S0_E_EEEvT_S7_S7_S7_T0_:
.LFB11470:
	pushq	%rbp
	.seh_pushreg	%rbp
	movq	%rsp, %rbp
	.seh_setframe	%rbp, 0
	subq	$48, %rsp
	.seh_stackalloc	48
	.seh_endprologue
	movq	%rcx, 16(%rbp)
	movq	%rdx, 24(%rbp)
	movq	%r8, 32(%rbp)
	movq	%r9, 40(%rbp)
	movq	32(%rbp), %rcx
	movq	24(%rbp), %rdx
	leaq	-1(%rbp), %rax
	movq	%rcx, %r8
	movq	%rax, %rcx
	call	_ZN9__gnu_cxx5__ops15_Iter_comp_iterIZ4mainEUl4nodeS2_E_EclIPS2_S6_EEbT_T0_
	testb	%al, %al
	je	.L462
	movq	40(%rbp), %rcx
	movq	32(%rbp), %rdx
	leaq	-1(%rbp), %rax
	movq	%rcx, %r8
	movq	%rax, %rcx
	call	_ZN9__gnu_cxx5__ops15_Iter_comp_iterIZ4mainEUl4nodeS2_E_EclIPS2_S6_EEbT_T0_
	testb	%al, %al
	je	.L463
	movq	32(%rbp), %rdx
	movq	16(%rbp), %rax
	movq	%rax, %rcx
	call	_ZSt9iter_swapIP4nodeS1_EvT_T0_
	jmp	.L468
.L463:
	movq	40(%rbp), %rcx
	movq	24(%rbp), %rdx
	leaq	-1(%rbp), %rax
	movq	%rcx, %r8
	movq	%rax, %rcx
	call	_ZN9__gnu_cxx5__ops15_Iter_comp_iterIZ4mainEUl4nodeS2_E_EclIPS2_S6_EEbT_T0_
	testb	%al, %al
	je	.L465
	movq	40(%rbp), %rdx
	movq	16(%rbp), %rax
	movq	%rax, %rcx
	call	_ZSt9iter_swapIP4nodeS1_EvT_T0_
	jmp	.L468
.L465:
	movq	24(%rbp), %rdx
	movq	16(%rbp), %rax
	movq	%rax, %rcx
	call	_ZSt9iter_swapIP4nodeS1_EvT_T0_
	jmp	.L468
.L462:
	movq	40(%rbp), %rcx
	movq	24(%rbp), %rdx
	leaq	-1(%rbp), %rax
	movq	%rcx, %r8
	movq	%rax, %rcx
	call	_ZN9__gnu_cxx5__ops15_Iter_comp_iterIZ4mainEUl4nodeS2_E_EclIPS2_S6_EEbT_T0_
	testb	%al, %al
	je	.L466
	movq	24(%rbp), %rdx
	movq	16(%rbp), %rax
	movq	%rax, %rcx
	call	_ZSt9iter_swapIP4nodeS1_EvT_T0_
	jmp	.L468
.L466:
	movq	40(%rbp), %rcx
	movq	32(%rbp), %rdx
	leaq	-1(%rbp), %rax
	movq	%rcx, %r8
	movq	%rax, %rcx
	call	_ZN9__gnu_cxx5__ops15_Iter_comp_iterIZ4mainEUl4nodeS2_E_EclIPS2_S6_EEbT_T0_
	testb	%al, %al
	je	.L467
	movq	40(%rbp), %rdx
	movq	16(%rbp), %rax
	movq	%rax, %rcx
	call	_ZSt9iter_swapIP4nodeS1_EvT_T0_
	jmp	.L468
.L467:
	movq	32(%rbp), %rdx
	movq	16(%rbp), %rax
	movq	%rax, %rcx
	call	_ZSt9iter_swapIP4nodeS1_EvT_T0_
.L468:
	nop
	addq	$48, %rsp
	popq	%rbp
	ret
	.seh_endproc
	.def	_ZSt21__unguarded_partitionIP4nodeN9__gnu_cxx5__ops15_Iter_comp_iterIZ4mainEUlS0_S0_E_EEET_S7_S7_S7_T0_;	.scl	3;	.type	32;	.endef
	.seh_proc	_ZSt21__unguarded_partitionIP4nodeN9__gnu_cxx5__ops15_Iter_comp_iterIZ4mainEUlS0_S0_E_EEET_S7_S7_S7_T0_
_ZSt21__unguarded_partitionIP4nodeN9__gnu_cxx5__ops15_Iter_comp_iterIZ4mainEUlS0_S0_E_EEET_S7_S7_S7_T0_:
.LFB11471:
	pushq	%rbp
	.seh_pushreg	%rbp
	movq	%rsp, %rbp
	.seh_setframe	%rbp, 0
	subq	$32, %rsp
	.seh_stackalloc	32
	.seh_endprologue
	movq	%rcx, 16(%rbp)
	movq	%rdx, 24(%rbp)
	movq	%r8, 32(%rbp)
	jmp	.L470
.L471:
	addq	$8, 16(%rbp)
.L470:
	movq	32(%rbp), %rcx
	movq	16(%rbp), %rdx
	leaq	40(%rbp), %rax
	movq	%rcx, %r8
	movq	%rax, %rcx
	call	_ZN9__gnu_cxx5__ops15_Iter_comp_iterIZ4mainEUl4nodeS2_E_EclIPS2_S6_EEbT_T0_
	testb	%al, %al
	jne	.L471
	subq	$8, 24(%rbp)
	jmp	.L472
.L473:
	subq	$8, 24(%rbp)
.L472:
	movq	24(%rbp), %rcx
	movq	32(%rbp), %rdx
	leaq	40(%rbp), %rax
	movq	%rcx, %r8
	movq	%rax, %rcx
	call	_ZN9__gnu_cxx5__ops15_Iter_comp_iterIZ4mainEUl4nodeS2_E_EclIPS2_S6_EEbT_T0_
	testb	%al, %al
	jne	.L473
	movq	16(%rbp), %rax
	cmpq	24(%rbp), %rax
	jb	.L474
	movq	16(%rbp), %rax
	jmp	.L477
.L474:
	movq	24(%rbp), %rdx
	movq	16(%rbp), %rax
	movq	%rax, %rcx
	call	_ZSt9iter_swapIP4nodeS1_EvT_T0_
	addq	$8, 16(%rbp)
	jmp	.L470
.L477:
	addq	$32, %rsp
	popq	%rbp
	ret
	.seh_endproc
	.align 2
	.def	_ZN9__gnu_cxx5__ops15_Iter_comp_iterIZ4mainEUl4nodeS2_E_EclIPS2_S6_EEbT_T0_;	.scl	3;	.type	32;	.endef
	.seh_proc	_ZN9__gnu_cxx5__ops15_Iter_comp_iterIZ4mainEUl4nodeS2_E_EclIPS2_S6_EEbT_T0_
_ZN9__gnu_cxx5__ops15_Iter_comp_iterIZ4mainEUl4nodeS2_E_EclIPS2_S6_EEbT_T0_:
.LFB11472:
	pushq	%rbp
	.seh_pushreg	%rbp
	movq	%rsp, %rbp
	.seh_setframe	%rbp, 0
	subq	$32, %rsp
	.seh_stackalloc	32
	.seh_endprologue
	movq	%rcx, 16(%rbp)
	movq	%rdx, 24(%rbp)
	movq	%r8, 32(%rbp)
	movq	16(%rbp), %rax
	movq	32(%rbp), %rdx
	movq	(%rdx), %rcx
	movq	24(%rbp), %rdx
	movq	(%rdx), %rdx
	movq	%rcx, %r8
	movq	%rax, %rcx
	call	_ZZ4mainENKUl4nodeS_E_clES_S_
	addq	$32, %rsp
	popq	%rbp
	ret
	.seh_endproc
	.section	.text$_ZSt4moveIR4nodeEONSt16remove_referenceIT_E4typeEOS3_,"x"
	.linkonce discard
	.globl	_ZSt4moveIR4nodeEONSt16remove_referenceIT_E4typeEOS3_
	.def	_ZSt4moveIR4nodeEONSt16remove_referenceIT_E4typeEOS3_;	.scl	2;	.type	32;	.endef
	.seh_proc	_ZSt4moveIR4nodeEONSt16remove_referenceIT_E4typeEOS3_
_ZSt4moveIR4nodeEONSt16remove_referenceIT_E4typeEOS3_:
.LFB11473:
	pushq	%rbp
	.seh_pushreg	%rbp
	movq	%rsp, %rbp
	.seh_setframe	%rbp, 0
	.seh_endprologue
	movq	%rcx, 16(%rbp)
	movq	16(%rbp), %rax
	popq	%rbp
	ret
	.seh_endproc
	.section	.text$_ZSt13move_backwardIP4nodeS1_ET0_T_S3_S2_,"x"
	.linkonce discard
	.globl	_ZSt13move_backwardIP4nodeS1_ET0_T_S3_S2_
	.def	_ZSt13move_backwardIP4nodeS1_ET0_T_S3_S2_;	.scl	2;	.type	32;	.endef
	.seh_proc	_ZSt13move_backwardIP4nodeS1_ET0_T_S3_S2_
_ZSt13move_backwardIP4nodeS1_ET0_T_S3_S2_:
.LFB11474:
	pushq	%rbp
	.seh_pushreg	%rbp
	pushq	%rbx
	.seh_pushreg	%rbx
	subq	$40, %rsp
	.seh_stackalloc	40
	leaq	32(%rsp), %rbp
	.seh_setframe	%rbp, 32
	.seh_endprologue
	movq	%rcx, 32(%rbp)
	movq	%rdx, 40(%rbp)
	movq	%r8, 48(%rbp)
	movq	40(%rbp), %rax
	movq	%rax, %rcx
	call	_ZSt12__miter_baseIP4nodeET_S2_
	movq	%rax, %rbx
	movq	32(%rbp), %rax
	movq	%rax, %rcx
	call	_ZSt12__miter_baseIP4nodeET_S2_
	movq	48(%rbp), %rdx
	movq	%rdx, %r8
	movq	%rbx, %rdx
	movq	%rax, %rcx
	call	_ZSt22__copy_move_backward_aILb1EP4nodeS1_ET1_T0_S3_S2_
	addq	$40, %rsp
	popq	%rbx
	popq	%rbp
	ret
	.seh_endproc
	.text
	.def	_ZN9__gnu_cxx5__ops15__val_comp_iterIZ4mainEUl4nodeS2_E_EENS0_14_Val_comp_iterIT_EENS0_15_Iter_comp_iterIS5_EE;	.scl	3;	.type	32;	.endef
	.seh_proc	_ZN9__gnu_cxx5__ops15__val_comp_iterIZ4mainEUl4nodeS2_E_EENS0_14_Val_comp_iterIT_EENS0_15_Iter_comp_iterIS5_EE
_ZN9__gnu_cxx5__ops15__val_comp_iterIZ4mainEUl4nodeS2_E_EENS0_14_Val_comp_iterIT_EENS0_15_Iter_comp_iterIS5_EE:
.LFB11475:
	pushq	%rbp
	.seh_pushreg	%rbp
	movq	%rsp, %rbp
	.seh_setframe	%rbp, 0
	subq	$48, %rsp
	.seh_stackalloc	48
	.seh_endprologue
	leaq	16(%rbp), %rcx
	call	_ZSt4moveIRN9__gnu_cxx5__ops15_Iter_comp_iterIZ4mainEUl4nodeS3_E_EEEONSt16remove_referenceIT_E4typeEOS8_
	movq	%rax, %rdx
	leaq	-1(%rbp), %rax
	movq	%rax, %rcx
	call	_ZN9__gnu_cxx5__ops14_Val_comp_iterIZ4mainEUl4nodeS2_E_EC1EONS0_15_Iter_comp_iterIS3_EE
	nop
	addq	$48, %rsp
	popq	%rbp
	ret
	.seh_endproc
	.def	_ZSt25__unguarded_linear_insertIP4nodeN9__gnu_cxx5__ops14_Val_comp_iterIZ4mainEUlS0_S0_E_EEEvT_T0_;	.scl	3;	.type	32;	.endef
	.seh_proc	_ZSt25__unguarded_linear_insertIP4nodeN9__gnu_cxx5__ops14_Val_comp_iterIZ4mainEUlS0_S0_E_EEEvT_T0_
_ZSt25__unguarded_linear_insertIP4nodeN9__gnu_cxx5__ops14_Val_comp_iterIZ4mainEUlS0_S0_E_EEEvT_T0_:
.LFB11476:
	pushq	%rbp
	.seh_pushreg	%rbp
	movq	%rsp, %rbp
	.seh_setframe	%rbp, 0
	subq	$48, %rsp
	.seh_stackalloc	48
	.seh_endprologue
	movq	%rcx, 16(%rbp)
	movq	16(%rbp), %rax
	movq	%rax, %rcx
	call	_ZSt4moveIR4nodeEONSt16remove_referenceIT_E4typeEOS3_
	movq	(%rax), %rax
	movq	%rax, -16(%rbp)
	movq	16(%rbp), %rax
	movq	%rax, -8(%rbp)
	subq	$8, -8(%rbp)
	jmp	.L487
.L488:
	movq	-8(%rbp), %rax
	movq	%rax, %rcx
	call	_ZSt4moveIR4nodeEONSt16remove_referenceIT_E4typeEOS3_
	movq	16(%rbp), %rdx
	movq	(%rax), %rax
	movq	%rax, (%rdx)
	movq	-8(%rbp), %rax
	movq	%rax, 16(%rbp)
	subq	$8, -8(%rbp)
.L487:
	movq	-8(%rbp), %rcx
	leaq	-16(%rbp), %rdx
	leaq	24(%rbp), %rax
	movq	%rcx, %r8
	movq	%rax, %rcx
	call	_ZN9__gnu_cxx5__ops14_Val_comp_iterIZ4mainEUl4nodeS2_E_EclIS2_PS2_EEbRT_T0_
	testb	%al, %al
	jne	.L488
	leaq	-16(%rbp), %rax
	movq	%rax, %rcx
	call	_ZSt4moveIR4nodeEONSt16remove_referenceIT_E4typeEOS3_
	movq	16(%rbp), %rdx
	movq	(%rax), %rax
	movq	%rax, (%rdx)
	nop
	addq	$48, %rsp
	popq	%rbp
	ret
	.seh_endproc
	.section	.text$_ZN9__gnu_cxx16__aligned_membufISt4pairIKiSt3mapIiiSt4lessIiESaIS1_IS2_iEEEEE7_M_addrEv,"x"
	.linkonce discard
	.align 2
	.globl	_ZN9__gnu_cxx16__aligned_membufISt4pairIKiSt3mapIiiSt4lessIiESaIS1_IS2_iEEEEE7_M_addrEv
	.def	_ZN9__gnu_cxx16__aligned_membufISt4pairIKiSt3mapIiiSt4lessIiESaIS1_IS2_iEEEEE7_M_addrEv;	.scl	2;	.type	32;	.endef
	.seh_proc	_ZN9__gnu_cxx16__aligned_membufISt4pairIKiSt3mapIiiSt4lessIiESaIS1_IS2_iEEEEE7_M_addrEv
_ZN9__gnu_cxx16__aligned_membufISt4pairIKiSt3mapIiiSt4lessIiESaIS1_IS2_iEEEEE7_M_addrEv:
.LFB11477:
	pushq	%rbp
	.seh_pushreg	%rbp
	movq	%rsp, %rbp
	.seh_setframe	%rbp, 0
	.seh_endprologue
	movq	%rcx, 16(%rbp)
	movq	16(%rbp), %rax
	popq	%rbp
	ret
	.seh_endproc
	.section	.text$_ZNSt8_Rb_treeIiSt4pairIKiSt3mapIiiSt4lessIiESaIS0_IS1_iEEEESt10_Select1stIS8_ES4_SaIS8_EE11_M_get_nodeEv,"x"
	.linkonce discard
	.align 2
	.globl	_ZNSt8_Rb_treeIiSt4pairIKiSt3mapIiiSt4lessIiESaIS0_IS1_iEEEESt10_Select1stIS8_ES4_SaIS8_EE11_M_get_nodeEv
	.def	_ZNSt8_Rb_treeIiSt4pairIKiSt3mapIiiSt4lessIiESaIS0_IS1_iEEEESt10_Select1stIS8_ES4_SaIS8_EE11_M_get_nodeEv;	.scl	2;	.type	32;	.endef
	.seh_proc	_ZNSt8_Rb_treeIiSt4pairIKiSt3mapIiiSt4lessIiESaIS0_IS1_iEEEESt10_Select1stIS8_ES4_SaIS8_EE11_M_get_nodeEv
_ZNSt8_Rb_treeIiSt4pairIKiSt3mapIiiSt4lessIiESaIS0_IS1_iEEEESt10_Select1stIS8_ES4_SaIS8_EE11_M_get_nodeEv:
.LFB11478:
	pushq	%rbp
	.seh_pushreg	%rbp
	movq	%rsp, %rbp
	.seh_setframe	%rbp, 0
	subq	$32, %rsp
	.seh_stackalloc	32
	.seh_endprologue
	movq	%rcx, 16(%rbp)
	movq	16(%rbp), %rax
	movq	%rax, %rcx
	call	_ZNSt8_Rb_treeIiSt4pairIKiSt3mapIiiSt4lessIiESaIS0_IS1_iEEEESt10_Select1stIS8_ES4_SaIS8_EE21_M_get_Node_allocatorEv
	movl	$1, %edx
	movq	%rax, %rcx
	call	_ZNSt16allocator_traitsISaISt13_Rb_tree_nodeISt4pairIKiSt3mapIiiSt4lessIiESaIS1_IS2_iEEEEEEE8allocateERSB_y
	addq	$32, %rsp
	popq	%rbp
	ret
	.seh_endproc
	.section	.text$_ZNSt8_Rb_treeIiSt4pairIKiSt3mapIiiSt4lessIiESaIS0_IS1_iEEEESt10_Select1stIS8_ES4_SaIS8_EE17_M_construct_nodeIJRKSt21piecewise_construct_tSt5tupleIJRS1_EESH_IJEEEEEvPSt13_Rb_tree_nodeIS8_EDpOT_,"x"
	.linkonce discard
	.align 2
	.globl	_ZNSt8_Rb_treeIiSt4pairIKiSt3mapIiiSt4lessIiESaIS0_IS1_iEEEESt10_Select1stIS8_ES4_SaIS8_EE17_M_construct_nodeIJRKSt21piecewise_construct_tSt5tupleIJRS1_EESH_IJEEEEEvPSt13_Rb_tree_nodeIS8_EDpOT_
	.def	_ZNSt8_Rb_treeIiSt4pairIKiSt3mapIiiSt4lessIiESaIS0_IS1_iEEEESt10_Select1stIS8_ES4_SaIS8_EE17_M_construct_nodeIJRKSt21piecewise_construct_tSt5tupleIJRS1_EESH_IJEEEEEvPSt13_Rb_tree_nodeIS8_EDpOT_;	.scl	2;	.type	32;	.endef
	.seh_proc	_ZNSt8_Rb_treeIiSt4pairIKiSt3mapIiiSt4lessIiESaIS0_IS1_iEEEESt10_Select1stIS8_ES4_SaIS8_EE17_M_construct_nodeIJRKSt21piecewise_construct_tSt5tupleIJRS1_EESH_IJEEEEEvPSt13_Rb_tree_nodeIS8_EDpOT_
_ZNSt8_Rb_treeIiSt4pairIKiSt3mapIiiSt4lessIiESaIS0_IS1_iEEEESt10_Select1stIS8_ES4_SaIS8_EE17_M_construct_nodeIJRKSt21piecewise_construct_tSt5tupleIJRS1_EESH_IJEEEEEvPSt13_Rb_tree_nodeIS8_EDpOT_:
.LFB11479:
	pushq	%rbp
	.seh_pushreg	%rbp
	pushq	%r12
	.seh_pushreg	%r12
	pushq	%rdi
	.seh_pushreg	%rdi
	pushq	%rsi
	.seh_pushreg	%rsi
	pushq	%rbx
	.seh_pushreg	%rbx
	subq	$48, %rsp
	.seh_stackalloc	48
	leaq	48(%rsp), %rbp
	.seh_setframe	%rbp, 48
	.seh_endprologue
	movq	%rcx, 48(%rbp)
	movq	%rdx, 56(%rbp)
	movq	%r8, 64(%rbp)
	movq	%r9, 72(%rbp)
	movq	56(%rbp), %rax
	movq	%rax, %rdx
	movl	$88, %ecx
	call	_ZnwyPv
	movq	80(%rbp), %rax
	movq	%rax, %rcx
	call	_ZSt7forwardISt5tupleIJEEEOT_RNSt16remove_referenceIS2_E4typeE
	movq	%rax, %rbx
	movq	72(%rbp), %rax
	movq	%rax, %rcx
	call	_ZSt7forwardISt5tupleIJRKiEEEOT_RNSt16remove_referenceIS4_E4typeE
	movq	%rax, %r12
	movq	64(%rbp), %rax
	movq	%rax, %rcx
	call	_ZSt7forwardIRKSt21piecewise_construct_tEOT_RNSt16remove_referenceIS3_E4typeE
	movq	%rax, %rdi
	movq	56(%rbp), %rax
	movq	%rax, %rcx
	call	_ZNSt13_Rb_tree_nodeISt4pairIKiSt3mapIiiSt4lessIiESaIS0_IS1_iEEEEE9_M_valptrEv
	movq	%rax, %rsi
	movq	48(%rbp), %rax
	movq	%rax, %rcx
	call	_ZNSt8_Rb_treeIiSt4pairIKiSt3mapIiiSt4lessIiESaIS0_IS1_iEEEESt10_Select1stIS8_ES4_SaIS8_EE21_M_get_Node_allocatorEv
	movq	%rbx, 32(%rsp)
	movq	%r12, %r9
	movq	%rdi, %r8
	movq	%rsi, %rdx
	movq	%rax, %rcx
.LEHB6:
	call	_ZNSt16allocator_traitsISaISt13_Rb_tree_nodeISt4pairIKiSt3mapIiiSt4lessIiESaIS1_IS2_iEEEEEEE9constructIS9_JRKSt21piecewise_construct_tSt5tupleIJRS2_EESH_IJEEEEEvRSB_PT_DpOT0_
.LEHE6:
	jmp	.L498
.L496:
	movq	%rax, %rcx
	call	__cxa_begin_catch
	movq	56(%rbp), %rdx
	movq	48(%rbp), %rax
	movq	%rax, %rcx
	call	_ZNSt8_Rb_treeIiSt4pairIKiSt3mapIiiSt4lessIiESaIS0_IS1_iEEEESt10_Select1stIS8_ES4_SaIS8_EE11_M_put_nodeEPSt13_Rb_tree_nodeIS8_E
.LEHB7:
	call	__cxa_rethrow
.LEHE7:
.L497:
	movq	%rax, %rbx
	call	__cxa_end_catch
	movq	%rbx, %rax
	movq	%rax, %rcx
.LEHB8:
	call	_Unwind_Resume
	nop
.LEHE8:
.L498:
	addq	$48, %rsp
	popq	%rbx
	popq	%rsi
	popq	%rdi
	popq	%r12
	popq	%rbp
	ret
	.seh_handler	__gxx_personality_seh0, @unwind, @except
	.seh_handlerdata
	.align 4
.LLSDA11479:
	.byte	0xff
	.byte	0x9b
	.uleb128 .LLSDATT11479-.LLSDATTD11479
.LLSDATTD11479:
	.byte	0x1
	.uleb128 .LLSDACSE11479-.LLSDACSB11479
.LLSDACSB11479:
	.uleb128 .LEHB6-.LFB11479
	.uleb128 .LEHE6-.LEHB6
	.uleb128 .L496-.LFB11479
	.uleb128 0x1
	.uleb128 .LEHB7-.LFB11479
	.uleb128 .LEHE7-.LEHB7
	.uleb128 .L497-.LFB11479
	.uleb128 0
	.uleb128 .LEHB8-.LFB11479
	.uleb128 .LEHE8-.LEHB8
	.uleb128 0
	.uleb128 0
.LLSDACSE11479:
	.byte	0x1
	.byte	0
	.align 4
	.long	0

.LLSDATT11479:
	.section	.text$_ZNSt8_Rb_treeIiSt4pairIKiSt3mapIiiSt4lessIiESaIS0_IS1_iEEEESt10_Select1stIS8_ES4_SaIS8_EE17_M_construct_nodeIJRKSt21piecewise_construct_tSt5tupleIJRS1_EESH_IJEEEEEvPSt13_Rb_tree_nodeIS8_EDpOT_,"x"
	.linkonce discard
	.seh_endproc
	.section	.text$_ZNSt8_Rb_treeIiSt4pairIKiSt3mapIiiSt4lessIiESaIS0_IS1_iEEEESt10_Select1stIS8_ES4_SaIS8_EE5beginEv,"x"
	.linkonce discard
	.align 2
	.globl	_ZNSt8_Rb_treeIiSt4pairIKiSt3mapIiiSt4lessIiESaIS0_IS1_iEEEESt10_Select1stIS8_ES4_SaIS8_EE5beginEv
	.def	_ZNSt8_Rb_treeIiSt4pairIKiSt3mapIiiSt4lessIiESaIS0_IS1_iEEEESt10_Select1stIS8_ES4_SaIS8_EE5beginEv;	.scl	2;	.type	32;	.endef
	.seh_proc	_ZNSt8_Rb_treeIiSt4pairIKiSt3mapIiiSt4lessIiESaIS0_IS1_iEEEESt10_Select1stIS8_ES4_SaIS8_EE5beginEv
_ZNSt8_Rb_treeIiSt4pairIKiSt3mapIiiSt4lessIiESaIS0_IS1_iEEEESt10_Select1stIS8_ES4_SaIS8_EE5beginEv:
.LFB11480:
	pushq	%rbp
	.seh_pushreg	%rbp
	movq	%rsp, %rbp
	.seh_setframe	%rbp, 0
	subq	$48, %rsp
	.seh_stackalloc	48
	.seh_endprologue
	movq	%rcx, 16(%rbp)
	movq	16(%rbp), %rax
	movq	24(%rax), %rdx
	leaq	-8(%rbp), %rax
	movq	%rax, %rcx
	call	_ZNSt17_Rb_tree_iteratorISt4pairIKiSt3mapIiiSt4lessIiESaIS0_IS1_iEEEEEC1EPSt18_Rb_tree_node_base
	movq	-8(%rbp), %rax
	addq	$48, %rsp
	popq	%rbp
	ret
	.seh_endproc
	.section	.text$_ZNSt4pairIPSt18_Rb_tree_node_baseS1_EC1IRPSt13_Rb_tree_nodeIS_IKiSt3mapIiiSt4lessIiESaIS_IS5_iEEEEERS1_Lb1EEEOT_OT0_,"x"
	.linkonce discard
	.align 2
	.globl	_ZNSt4pairIPSt18_Rb_tree_node_baseS1_EC1IRPSt13_Rb_tree_nodeIS_IKiSt3mapIiiSt4lessIiESaIS_IS5_iEEEEERS1_Lb1EEEOT_OT0_
	.def	_ZNSt4pairIPSt18_Rb_tree_node_baseS1_EC1IRPSt13_Rb_tree_nodeIS_IKiSt3mapIiiSt4lessIiESaIS_IS5_iEEEEERS1_Lb1EEEOT_OT0_;	.scl	2;	.type	32;	.endef
	.seh_proc	_ZNSt4pairIPSt18_Rb_tree_node_baseS1_EC1IRPSt13_Rb_tree_nodeIS_IKiSt3mapIiiSt4lessIiESaIS_IS5_iEEEEERS1_Lb1EEEOT_OT0_
_ZNSt4pairIPSt18_Rb_tree_node_baseS1_EC1IRPSt13_Rb_tree_nodeIS_IKiSt3mapIiiSt4lessIiESaIS_IS5_iEEEEERS1_Lb1EEEOT_OT0_:
.LFB11483:
	pushq	%rbp
	.seh_pushreg	%rbp
	movq	%rsp, %rbp
	.seh_setframe	%rbp, 0
	subq	$32, %rsp
	.seh_stackalloc	32
	.seh_endprologue
	movq	%rcx, 16(%rbp)
	movq	%rdx, 24(%rbp)
	movq	%r8, 32(%rbp)
	movq	24(%rbp), %rax
	movq	%rax, %rcx
	call	_ZSt7forwardIRPSt13_Rb_tree_nodeISt4pairIKiSt3mapIiiSt4lessIiESaIS1_IS2_iEEEEEEOT_RNSt16remove_referenceISD_E4typeE
	movq	(%rax), %rdx
	movq	16(%rbp), %rax
	movq	%rdx, (%rax)
	movq	32(%rbp), %rax
	movq	%rax, %rcx
	call	_ZSt7forwardIRPSt18_Rb_tree_node_baseEOT_RNSt16remove_referenceIS3_E4typeE
	movq	(%rax), %rdx
	movq	16(%rbp), %rax
	movq	%rdx, 8(%rax)
	nop
	addq	$32, %rsp
	popq	%rbp
	ret
	.seh_endproc
	.section	.text$_ZSt7forwardIRPSt18_Rb_tree_node_baseEOT_RNSt16remove_referenceIS3_E4typeE,"x"
	.linkonce discard
	.globl	_ZSt7forwardIRPSt18_Rb_tree_node_baseEOT_RNSt16remove_referenceIS3_E4typeE
	.def	_ZSt7forwardIRPSt18_Rb_tree_node_baseEOT_RNSt16remove_referenceIS3_E4typeE;	.scl	2;	.type	32;	.endef
	.seh_proc	_ZSt7forwardIRPSt18_Rb_tree_node_baseEOT_RNSt16remove_referenceIS3_E4typeE
_ZSt7forwardIRPSt18_Rb_tree_node_baseEOT_RNSt16remove_referenceIS3_E4typeE:
.LFB11484:
	pushq	%rbp
	.seh_pushreg	%rbp
	movq	%rsp, %rbp
	.seh_setframe	%rbp, 0
	.seh_endprologue
	movq	%rcx, 16(%rbp)
	movq	16(%rbp), %rax
	popq	%rbp
	ret
	.seh_endproc
	.section	.text$_ZNKSt13_Rb_tree_nodeISt4pairIKiSt3mapIiiSt4lessIiESaIS0_IS1_iEEEEE9_M_valptrEv,"x"
	.linkonce discard
	.align 2
	.globl	_ZNKSt13_Rb_tree_nodeISt4pairIKiSt3mapIiiSt4lessIiESaIS0_IS1_iEEEEE9_M_valptrEv
	.def	_ZNKSt13_Rb_tree_nodeISt4pairIKiSt3mapIiiSt4lessIiESaIS0_IS1_iEEEEE9_M_valptrEv;	.scl	2;	.type	32;	.endef
	.seh_proc	_ZNKSt13_Rb_tree_nodeISt4pairIKiSt3mapIiiSt4lessIiESaIS0_IS1_iEEEEE9_M_valptrEv
_ZNKSt13_Rb_tree_nodeISt4pairIKiSt3mapIiiSt4lessIiESaIS0_IS1_iEEEEE9_M_valptrEv:
.LFB11485:
	pushq	%rbp
	.seh_pushreg	%rbp
	movq	%rsp, %rbp
	.seh_setframe	%rbp, 0
	subq	$32, %rsp
	.seh_stackalloc	32
	.seh_endprologue
	movq	%rcx, 16(%rbp)
	movq	16(%rbp), %rax
	addq	$32, %rax
	movq	%rax, %rcx
	call	_ZNK9__gnu_cxx16__aligned_membufISt4pairIKiSt3mapIiiSt4lessIiESaIS1_IS2_iEEEEE6_M_ptrEv
	addq	$32, %rsp
	popq	%rbp
	ret
	.seh_endproc
	.section	.text$_ZNKSt10_Select1stISt4pairIKiSt3mapIiiSt4lessIiESaIS0_IS1_iEEEEEclERKS8_,"x"
	.linkonce discard
	.align 2
	.globl	_ZNKSt10_Select1stISt4pairIKiSt3mapIiiSt4lessIiESaIS0_IS1_iEEEEEclERKS8_
	.def	_ZNKSt10_Select1stISt4pairIKiSt3mapIiiSt4lessIiESaIS0_IS1_iEEEEEclERKS8_;	.scl	2;	.type	32;	.endef
	.seh_proc	_ZNKSt10_Select1stISt4pairIKiSt3mapIiiSt4lessIiESaIS0_IS1_iEEEEEclERKS8_
_ZNKSt10_Select1stISt4pairIKiSt3mapIiiSt4lessIiESaIS0_IS1_iEEEEEclERKS8_:
.LFB11486:
	pushq	%rbp
	.seh_pushreg	%rbp
	movq	%rsp, %rbp
	.seh_setframe	%rbp, 0
	.seh_endprologue
	movq	%rcx, 16(%rbp)
	movq	%rdx, 24(%rbp)
	movq	24(%rbp), %rax
	popq	%rbp
	ret
	.seh_endproc
	.section	.text$_ZNKSt8_Rb_treeIiSt4pairIKiiESt10_Select1stIS2_ESt4lessIiESaIS2_EE9_M_mbeginEv,"x"
	.linkonce discard
	.align 2
	.globl	_ZNKSt8_Rb_treeIiSt4pairIKiiESt10_Select1stIS2_ESt4lessIiESaIS2_EE9_M_mbeginEv
	.def	_ZNKSt8_Rb_treeIiSt4pairIKiiESt10_Select1stIS2_ESt4lessIiESaIS2_EE9_M_mbeginEv;	.scl	2;	.type	32;	.endef
	.seh_proc	_ZNKSt8_Rb_treeIiSt4pairIKiiESt10_Select1stIS2_ESt4lessIiESaIS2_EE9_M_mbeginEv
_ZNKSt8_Rb_treeIiSt4pairIKiiESt10_Select1stIS2_ESt4lessIiESaIS2_EE9_M_mbeginEv:
.LFB11487:
	pushq	%rbp
	.seh_pushreg	%rbp
	movq	%rsp, %rbp
	.seh_setframe	%rbp, 0
	.seh_endprologue
	movq	%rcx, 16(%rbp)
	movq	16(%rbp), %rax
	movq	16(%rax), %rax
	popq	%rbp
	ret
	.seh_endproc
	.section	.text$_ZNSt8_Rb_treeIiSt4pairIKiiESt10_Select1stIS2_ESt4lessIiESaIS2_EE7_S_leftEPSt18_Rb_tree_node_base,"x"
	.linkonce discard
	.globl	_ZNSt8_Rb_treeIiSt4pairIKiiESt10_Select1stIS2_ESt4lessIiESaIS2_EE7_S_leftEPSt18_Rb_tree_node_base
	.def	_ZNSt8_Rb_treeIiSt4pairIKiiESt10_Select1stIS2_ESt4lessIiESaIS2_EE7_S_leftEPSt18_Rb_tree_node_base;	.scl	2;	.type	32;	.endef
	.seh_proc	_ZNSt8_Rb_treeIiSt4pairIKiiESt10_Select1stIS2_ESt4lessIiESaIS2_EE7_S_leftEPSt18_Rb_tree_node_base
_ZNSt8_Rb_treeIiSt4pairIKiiESt10_Select1stIS2_ESt4lessIiESaIS2_EE7_S_leftEPSt18_Rb_tree_node_base:
.LFB11488:
	pushq	%rbp
	.seh_pushreg	%rbp
	movq	%rsp, %rbp
	.seh_setframe	%rbp, 0
	.seh_endprologue
	movq	%rcx, 16(%rbp)
	movq	16(%rbp), %rax
	movq	16(%rax), %rax
	popq	%rbp
	ret
	.seh_endproc
	.section	.text$_ZN9__gnu_cxx16__aligned_membufISt4pairIKiiEE7_M_addrEv,"x"
	.linkonce discard
	.align 2
	.globl	_ZN9__gnu_cxx16__aligned_membufISt4pairIKiiEE7_M_addrEv
	.def	_ZN9__gnu_cxx16__aligned_membufISt4pairIKiiEE7_M_addrEv;	.scl	2;	.type	32;	.endef
	.seh_proc	_ZN9__gnu_cxx16__aligned_membufISt4pairIKiiEE7_M_addrEv
_ZN9__gnu_cxx16__aligned_membufISt4pairIKiiEE7_M_addrEv:
.LFB11489:
	pushq	%rbp
	.seh_pushreg	%rbp
	movq	%rsp, %rbp
	.seh_setframe	%rbp, 0
	.seh_endprologue
	movq	%rcx, 16(%rbp)
	movq	16(%rbp), %rax
	popq	%rbp
	ret
	.seh_endproc
	.section	.text$_ZNSt8_Rb_treeIiSt4pairIKiiESt10_Select1stIS2_ESt4lessIiESaIS2_EE11_M_get_nodeEv,"x"
	.linkonce discard
	.align 2
	.globl	_ZNSt8_Rb_treeIiSt4pairIKiiESt10_Select1stIS2_ESt4lessIiESaIS2_EE11_M_get_nodeEv
	.def	_ZNSt8_Rb_treeIiSt4pairIKiiESt10_Select1stIS2_ESt4lessIiESaIS2_EE11_M_get_nodeEv;	.scl	2;	.type	32;	.endef
	.seh_proc	_ZNSt8_Rb_treeIiSt4pairIKiiESt10_Select1stIS2_ESt4lessIiESaIS2_EE11_M_get_nodeEv
_ZNSt8_Rb_treeIiSt4pairIKiiESt10_Select1stIS2_ESt4lessIiESaIS2_EE11_M_get_nodeEv:
.LFB11490:
	pushq	%rbp
	.seh_pushreg	%rbp
	movq	%rsp, %rbp
	.seh_setframe	%rbp, 0
	subq	$32, %rsp
	.seh_stackalloc	32
	.seh_endprologue
	movq	%rcx, 16(%rbp)
	movq	16(%rbp), %rax
	movq	%rax, %rcx
	call	_ZNSt8_Rb_treeIiSt4pairIKiiESt10_Select1stIS2_ESt4lessIiESaIS2_EE21_M_get_Node_allocatorEv
	movl	$1, %edx
	movq	%rax, %rcx
	call	_ZNSt16allocator_traitsISaISt13_Rb_tree_nodeISt4pairIKiiEEEE8allocateERS5_y
	addq	$32, %rsp
	popq	%rbp
	ret
	.seh_endproc
	.section	.text$_ZNSt8_Rb_treeIiSt4pairIKiiESt10_Select1stIS2_ESt4lessIiESaIS2_EE17_M_construct_nodeIJRKSt21piecewise_construct_tSt5tupleIJRS1_EESD_IJEEEEEvPSt13_Rb_tree_nodeIS2_EDpOT_,"x"
	.linkonce discard
	.align 2
	.globl	_ZNSt8_Rb_treeIiSt4pairIKiiESt10_Select1stIS2_ESt4lessIiESaIS2_EE17_M_construct_nodeIJRKSt21piecewise_construct_tSt5tupleIJRS1_EESD_IJEEEEEvPSt13_Rb_tree_nodeIS2_EDpOT_
	.def	_ZNSt8_Rb_treeIiSt4pairIKiiESt10_Select1stIS2_ESt4lessIiESaIS2_EE17_M_construct_nodeIJRKSt21piecewise_construct_tSt5tupleIJRS1_EESD_IJEEEEEvPSt13_Rb_tree_nodeIS2_EDpOT_;	.scl	2;	.type	32;	.endef
	.seh_proc	_ZNSt8_Rb_treeIiSt4pairIKiiESt10_Select1stIS2_ESt4lessIiESaIS2_EE17_M_construct_nodeIJRKSt21piecewise_construct_tSt5tupleIJRS1_EESD_IJEEEEEvPSt13_Rb_tree_nodeIS2_EDpOT_
_ZNSt8_Rb_treeIiSt4pairIKiiESt10_Select1stIS2_ESt4lessIiESaIS2_EE17_M_construct_nodeIJRKSt21piecewise_construct_tSt5tupleIJRS1_EESD_IJEEEEEvPSt13_Rb_tree_nodeIS2_EDpOT_:
.LFB11491:
	pushq	%rbp
	.seh_pushreg	%rbp
	pushq	%r12
	.seh_pushreg	%r12
	pushq	%rdi
	.seh_pushreg	%rdi
	pushq	%rsi
	.seh_pushreg	%rsi
	pushq	%rbx
	.seh_pushreg	%rbx
	subq	$48, %rsp
	.seh_stackalloc	48
	leaq	48(%rsp), %rbp
	.seh_setframe	%rbp, 48
	.seh_endprologue
	movq	%rcx, 48(%rbp)
	movq	%rdx, 56(%rbp)
	movq	%r8, 64(%rbp)
	movq	%r9, 72(%rbp)
	movq	56(%rbp), %rax
	movq	%rax, %rdx
	movl	$40, %ecx
	call	_ZnwyPv
	movq	80(%rbp), %rax
	movq	%rax, %rcx
	call	_ZSt7forwardISt5tupleIJEEEOT_RNSt16remove_referenceIS2_E4typeE
	movq	%rax, %rbx
	movq	72(%rbp), %rax
	movq	%rax, %rcx
	call	_ZSt7forwardISt5tupleIJRKiEEEOT_RNSt16remove_referenceIS4_E4typeE
	movq	%rax, %r12
	movq	64(%rbp), %rax
	movq	%rax, %rcx
	call	_ZSt7forwardIRKSt21piecewise_construct_tEOT_RNSt16remove_referenceIS3_E4typeE
	movq	%rax, %rdi
	movq	56(%rbp), %rax
	movq	%rax, %rcx
	call	_ZNSt13_Rb_tree_nodeISt4pairIKiiEE9_M_valptrEv
	movq	%rax, %rsi
	movq	48(%rbp), %rax
	movq	%rax, %rcx
	call	_ZNSt8_Rb_treeIiSt4pairIKiiESt10_Select1stIS2_ESt4lessIiESaIS2_EE21_M_get_Node_allocatorEv
	movq	%rbx, 32(%rsp)
	movq	%r12, %r9
	movq	%rdi, %r8
	movq	%rsi, %rdx
	movq	%rax, %rcx
.LEHB9:
	call	_ZNSt16allocator_traitsISaISt13_Rb_tree_nodeISt4pairIKiiEEEE9constructIS3_JRKSt21piecewise_construct_tSt5tupleIJRS2_EESB_IJEEEEEvRS5_PT_DpOT0_
.LEHE9:
	jmp	.L521
.L519:
	movq	%rax, %rcx
	call	__cxa_begin_catch
	movq	56(%rbp), %rdx
	movq	48(%rbp), %rax
	movq	%rax, %rcx
	call	_ZNSt8_Rb_treeIiSt4pairIKiiESt10_Select1stIS2_ESt4lessIiESaIS2_EE11_M_put_nodeEPSt13_Rb_tree_nodeIS2_E
.LEHB10:
	call	__cxa_rethrow
.LEHE10:
.L520:
	movq	%rax, %rbx
	call	__cxa_end_catch
	movq	%rbx, %rax
	movq	%rax, %rcx
.LEHB11:
	call	_Unwind_Resume
	nop
.LEHE11:
.L521:
	addq	$48, %rsp
	popq	%rbx
	popq	%rsi
	popq	%rdi
	popq	%r12
	popq	%rbp
	ret
	.seh_handler	__gxx_personality_seh0, @unwind, @except
	.seh_handlerdata
	.align 4
.LLSDA11491:
	.byte	0xff
	.byte	0x9b
	.uleb128 .LLSDATT11491-.LLSDATTD11491
.LLSDATTD11491:
	.byte	0x1
	.uleb128 .LLSDACSE11491-.LLSDACSB11491
.LLSDACSB11491:
	.uleb128 .LEHB9-.LFB11491
	.uleb128 .LEHE9-.LEHB9
	.uleb128 .L519-.LFB11491
	.uleb128 0x1
	.uleb128 .LEHB10-.LFB11491
	.uleb128 .LEHE10-.LEHB10
	.uleb128 .L520-.LFB11491
	.uleb128 0
	.uleb128 .LEHB11-.LFB11491
	.uleb128 .LEHE11-.LEHB11
	.uleb128 0
	.uleb128 0
.LLSDACSE11491:
	.byte	0x1
	.byte	0
	.align 4
	.long	0

.LLSDATT11491:
	.section	.text$_ZNSt8_Rb_treeIiSt4pairIKiiESt10_Select1stIS2_ESt4lessIiESaIS2_EE17_M_construct_nodeIJRKSt21piecewise_construct_tSt5tupleIJRS1_EESD_IJEEEEEvPSt13_Rb_tree_nodeIS2_EDpOT_,"x"
	.linkonce discard
	.seh_endproc
	.section	.text$_ZNSt8_Rb_treeIiSt4pairIKiiESt10_Select1stIS2_ESt4lessIiESaIS2_EE15_M_destroy_nodeEPSt13_Rb_tree_nodeIS2_E,"x"
	.linkonce discard
	.align 2
	.globl	_ZNSt8_Rb_treeIiSt4pairIKiiESt10_Select1stIS2_ESt4lessIiESaIS2_EE15_M_destroy_nodeEPSt13_Rb_tree_nodeIS2_E
	.def	_ZNSt8_Rb_treeIiSt4pairIKiiESt10_Select1stIS2_ESt4lessIiESaIS2_EE15_M_destroy_nodeEPSt13_Rb_tree_nodeIS2_E;	.scl	2;	.type	32;	.endef
	.seh_proc	_ZNSt8_Rb_treeIiSt4pairIKiiESt10_Select1stIS2_ESt4lessIiESaIS2_EE15_M_destroy_nodeEPSt13_Rb_tree_nodeIS2_E
_ZNSt8_Rb_treeIiSt4pairIKiiESt10_Select1stIS2_ESt4lessIiESaIS2_EE15_M_destroy_nodeEPSt13_Rb_tree_nodeIS2_E:
.LFB11493:
	pushq	%rbp
	.seh_pushreg	%rbp
	pushq	%rbx
	.seh_pushreg	%rbx
	subq	$40, %rsp
	.seh_stackalloc	40
	leaq	32(%rsp), %rbp
	.seh_setframe	%rbp, 32
	.seh_endprologue
	movq	%rcx, 32(%rbp)
	movq	%rdx, 40(%rbp)
	movq	40(%rbp), %rax
	movq	%rax, %rcx
	call	_ZNSt13_Rb_tree_nodeISt4pairIKiiEE9_M_valptrEv
	movq	%rax, %rbx
	movq	32(%rbp), %rax
	movq	%rax, %rcx
	call	_ZNSt8_Rb_treeIiSt4pairIKiiESt10_Select1stIS2_ESt4lessIiESaIS2_EE21_M_get_Node_allocatorEv
	movq	%rbx, %rdx
	movq	%rax, %rcx
	call	_ZNSt16allocator_traitsISaISt13_Rb_tree_nodeISt4pairIKiiEEEE7destroyIS3_EEvRS5_PT_
	nop
	addq	$40, %rsp
	popq	%rbx
	popq	%rbp
	ret
	.seh_endproc
	.section	.text$_ZNSt8_Rb_treeIiSt4pairIKiiESt10_Select1stIS2_ESt4lessIiESaIS2_EE11_M_put_nodeEPSt13_Rb_tree_nodeIS2_E,"x"
	.linkonce discard
	.align 2
	.globl	_ZNSt8_Rb_treeIiSt4pairIKiiESt10_Select1stIS2_ESt4lessIiESaIS2_EE11_M_put_nodeEPSt13_Rb_tree_nodeIS2_E
	.def	_ZNSt8_Rb_treeIiSt4pairIKiiESt10_Select1stIS2_ESt4lessIiESaIS2_EE11_M_put_nodeEPSt13_Rb_tree_nodeIS2_E;	.scl	2;	.type	32;	.endef
	.seh_proc	_ZNSt8_Rb_treeIiSt4pairIKiiESt10_Select1stIS2_ESt4lessIiESaIS2_EE11_M_put_nodeEPSt13_Rb_tree_nodeIS2_E
_ZNSt8_Rb_treeIiSt4pairIKiiESt10_Select1stIS2_ESt4lessIiESaIS2_EE11_M_put_nodeEPSt13_Rb_tree_nodeIS2_E:
.LFB11494:
	pushq	%rbp
	.seh_pushreg	%rbp
	movq	%rsp, %rbp
	.seh_setframe	%rbp, 0
	subq	$32, %rsp
	.seh_stackalloc	32
	.seh_endprologue
	movq	%rcx, 16(%rbp)
	movq	%rdx, 24(%rbp)
	movq	16(%rbp), %rax
	movq	%rax, %rcx
	call	_ZNSt8_Rb_treeIiSt4pairIKiiESt10_Select1stIS2_ESt4lessIiESaIS2_EE21_M_get_Node_allocatorEv
	movq	%rax, %rcx
	movq	24(%rbp), %rax
	movl	$1, %r8d
	movq	%rax, %rdx
	call	_ZNSt16allocator_traitsISaISt13_Rb_tree_nodeISt4pairIKiiEEEE10deallocateERS5_PS4_y
	nop
	addq	$32, %rsp
	popq	%rbp
	ret
	.seh_handler	__gxx_personality_seh0, @unwind, @except
	.seh_handlerdata
.LLSDA11494:
	.byte	0xff
	.byte	0xff
	.byte	0x1
	.uleb128 .LLSDACSE11494-.LLSDACSB11494
.LLSDACSB11494:
.LLSDACSE11494:
	.section	.text$_ZNSt8_Rb_treeIiSt4pairIKiiESt10_Select1stIS2_ESt4lessIiESaIS2_EE11_M_put_nodeEPSt13_Rb_tree_nodeIS2_E,"x"
	.linkonce discard
	.seh_endproc
	.section	.text$_ZNSt8_Rb_treeIiSt4pairIKiiESt10_Select1stIS2_ESt4lessIiESaIS2_EE5beginEv,"x"
	.linkonce discard
	.align 2
	.globl	_ZNSt8_Rb_treeIiSt4pairIKiiESt10_Select1stIS2_ESt4lessIiESaIS2_EE5beginEv
	.def	_ZNSt8_Rb_treeIiSt4pairIKiiESt10_Select1stIS2_ESt4lessIiESaIS2_EE5beginEv;	.scl	2;	.type	32;	.endef
	.seh_proc	_ZNSt8_Rb_treeIiSt4pairIKiiESt10_Select1stIS2_ESt4lessIiESaIS2_EE5beginEv
_ZNSt8_Rb_treeIiSt4pairIKiiESt10_Select1stIS2_ESt4lessIiESaIS2_EE5beginEv:
.LFB11495:
	pushq	%rbp
	.seh_pushreg	%rbp
	movq	%rsp, %rbp
	.seh_setframe	%rbp, 0
	subq	$48, %rsp
	.seh_stackalloc	48
	.seh_endprologue
	movq	%rcx, 16(%rbp)
	movq	16(%rbp), %rax
	movq	24(%rax), %rdx
	leaq	-8(%rbp), %rax
	movq	%rax, %rcx
	call	_ZNSt17_Rb_tree_iteratorISt4pairIKiiEEC1EPSt18_Rb_tree_node_base
	movq	-8(%rbp), %rax
	addq	$48, %rsp
	popq	%rbp
	ret
	.seh_endproc
	.section	.text$_ZNSt4pairIPSt18_Rb_tree_node_baseS1_EC1IRPSt13_Rb_tree_nodeIS_IKiiEERS1_Lb1EEEOT_OT0_,"x"
	.linkonce discard
	.align 2
	.globl	_ZNSt4pairIPSt18_Rb_tree_node_baseS1_EC1IRPSt13_Rb_tree_nodeIS_IKiiEERS1_Lb1EEEOT_OT0_
	.def	_ZNSt4pairIPSt18_Rb_tree_node_baseS1_EC1IRPSt13_Rb_tree_nodeIS_IKiiEERS1_Lb1EEEOT_OT0_;	.scl	2;	.type	32;	.endef
	.seh_proc	_ZNSt4pairIPSt18_Rb_tree_node_baseS1_EC1IRPSt13_Rb_tree_nodeIS_IKiiEERS1_Lb1EEEOT_OT0_
_ZNSt4pairIPSt18_Rb_tree_node_baseS1_EC1IRPSt13_Rb_tree_nodeIS_IKiiEERS1_Lb1EEEOT_OT0_:
.LFB11498:
	pushq	%rbp
	.seh_pushreg	%rbp
	movq	%rsp, %rbp
	.seh_setframe	%rbp, 0
	subq	$32, %rsp
	.seh_stackalloc	32
	.seh_endprologue
	movq	%rcx, 16(%rbp)
	movq	%rdx, 24(%rbp)
	movq	%r8, 32(%rbp)
	movq	24(%rbp), %rax
	movq	%rax, %rcx
	call	_ZSt7forwardIRPSt13_Rb_tree_nodeISt4pairIKiiEEEOT_RNSt16remove_referenceIS7_E4typeE
	movq	(%rax), %rdx
	movq	16(%rbp), %rax
	movq	%rdx, (%rax)
	movq	32(%rbp), %rax
	movq	%rax, %rcx
	call	_ZSt7forwardIRPSt18_Rb_tree_node_baseEOT_RNSt16remove_referenceIS3_E4typeE
	movq	(%rax), %rdx
	movq	16(%rbp), %rax
	movq	%rdx, 8(%rax)
	nop
	addq	$32, %rsp
	popq	%rbp
	ret
	.seh_endproc
	.section	.text$_ZNKSt13_Rb_tree_nodeISt4pairIKiiEE9_M_valptrEv,"x"
	.linkonce discard
	.align 2
	.globl	_ZNKSt13_Rb_tree_nodeISt4pairIKiiEE9_M_valptrEv
	.def	_ZNKSt13_Rb_tree_nodeISt4pairIKiiEE9_M_valptrEv;	.scl	2;	.type	32;	.endef
	.seh_proc	_ZNKSt13_Rb_tree_nodeISt4pairIKiiEE9_M_valptrEv
_ZNKSt13_Rb_tree_nodeISt4pairIKiiEE9_M_valptrEv:
.LFB11499:
	pushq	%rbp
	.seh_pushreg	%rbp
	movq	%rsp, %rbp
	.seh_setframe	%rbp, 0
	subq	$32, %rsp
	.seh_stackalloc	32
	.seh_endprologue
	movq	%rcx, 16(%rbp)
	movq	16(%rbp), %rax
	addq	$32, %rax
	movq	%rax, %rcx
	call	_ZNK9__gnu_cxx16__aligned_membufISt4pairIKiiEE6_M_ptrEv
	addq	$32, %rsp
	popq	%rbp
	ret
	.seh_endproc
	.section	.text$_ZNKSt10_Select1stISt4pairIKiiEEclERKS2_,"x"
	.linkonce discard
	.align 2
	.globl	_ZNKSt10_Select1stISt4pairIKiiEEclERKS2_
	.def	_ZNKSt10_Select1stISt4pairIKiiEEclERKS2_;	.scl	2;	.type	32;	.endef
	.seh_proc	_ZNKSt10_Select1stISt4pairIKiiEEclERKS2_
_ZNKSt10_Select1stISt4pairIKiiEEclERKS2_:
.LFB11500:
	pushq	%rbp
	.seh_pushreg	%rbp
	movq	%rsp, %rbp
	.seh_setframe	%rbp, 0
	.seh_endprologue
	movq	%rcx, 16(%rbp)
	movq	%rdx, 24(%rbp)
	movq	24(%rbp), %rax
	popq	%rbp
	ret
	.seh_endproc
	.section	.text$_ZNSt3mapIiiSt4lessIiESaISt4pairIKiiEEED1Ev,"x"
	.linkonce discard
	.align 2
	.globl	_ZNSt3mapIiiSt4lessIiESaISt4pairIKiiEEED1Ev
	.def	_ZNSt3mapIiiSt4lessIiESaISt4pairIKiiEEED1Ev;	.scl	2;	.type	32;	.endef
	.seh_proc	_ZNSt3mapIiiSt4lessIiESaISt4pairIKiiEEED1Ev
_ZNSt3mapIiiSt4lessIiESaISt4pairIKiiEEED1Ev:
.LFB11532:
	pushq	%rbp
	.seh_pushreg	%rbp
	movq	%rsp, %rbp
	.seh_setframe	%rbp, 0
	subq	$32, %rsp
	.seh_stackalloc	32
	.seh_endprologue
	movq	%rcx, 16(%rbp)
	movq	16(%rbp), %rax
	movq	%rax, %rcx
	call	_ZNSt8_Rb_treeIiSt4pairIKiiESt10_Select1stIS2_ESt4lessIiESaIS2_EED1Ev
	nop
	addq	$32, %rsp
	popq	%rbp
	ret
	.seh_endproc
	.section	.text$_ZNSt4pairIKiSt3mapIiiSt4lessIiESaIS_IS0_iEEEED1Ev,"x"
	.linkonce discard
	.align 2
	.globl	_ZNSt4pairIKiSt3mapIiiSt4lessIiESaIS_IS0_iEEEED1Ev
	.def	_ZNSt4pairIKiSt3mapIiiSt4lessIiESaIS_IS0_iEEEED1Ev;	.scl	2;	.type	32;	.endef
	.seh_proc	_ZNSt4pairIKiSt3mapIiiSt4lessIiESaIS_IS0_iEEEED1Ev
_ZNSt4pairIKiSt3mapIiiSt4lessIiESaIS_IS0_iEEEED1Ev:
.LFB11534:
	pushq	%rbp
	.seh_pushreg	%rbp
	movq	%rsp, %rbp
	.seh_setframe	%rbp, 0
	subq	$32, %rsp
	.seh_stackalloc	32
	.seh_endprologue
	movq	%rcx, 16(%rbp)
	movq	16(%rbp), %rax
	addq	$8, %rax
	movq	%rax, %rcx
	call	_ZNSt3mapIiiSt4lessIiESaISt4pairIKiiEEED1Ev
	nop
	addq	$32, %rsp
	popq	%rbp
	ret
	.seh_endproc
	.section	.text$_ZNSt15__new_allocatorISt13_Rb_tree_nodeISt4pairIKiSt3mapIiiSt4lessIiESaIS1_IS2_iEEEEEE7destroyIS9_EEvPT_,"x"
	.linkonce discard
	.align 2
	.globl	_ZNSt15__new_allocatorISt13_Rb_tree_nodeISt4pairIKiSt3mapIiiSt4lessIiESaIS1_IS2_iEEEEEE7destroyIS9_EEvPT_
	.def	_ZNSt15__new_allocatorISt13_Rb_tree_nodeISt4pairIKiSt3mapIiiSt4lessIiESaIS1_IS2_iEEEEEE7destroyIS9_EEvPT_;	.scl	2;	.type	32;	.endef
	.seh_proc	_ZNSt15__new_allocatorISt13_Rb_tree_nodeISt4pairIKiSt3mapIiiSt4lessIiESaIS1_IS2_iEEEEEE7destroyIS9_EEvPT_
_ZNSt15__new_allocatorISt13_Rb_tree_nodeISt4pairIKiSt3mapIiiSt4lessIiESaIS1_IS2_iEEEEEE7destroyIS9_EEvPT_:
.LFB11528:
	pushq	%rbp
	.seh_pushreg	%rbp
	movq	%rsp, %rbp
	.seh_setframe	%rbp, 0
	subq	$32, %rsp
	.seh_stackalloc	32
	.seh_endprologue
	movq	%rcx, 16(%rbp)
	movq	%rdx, 24(%rbp)
	movq	24(%rbp), %rax
	movq	%rax, %rcx
	call	_ZNSt4pairIKiSt3mapIiiSt4lessIiESaIS_IS0_iEEEED1Ev
	nop
	addq	$32, %rsp
	popq	%rbp
	ret
	.seh_endproc
	.section	.text$_ZNSt15__new_allocatorISt13_Rb_tree_nodeISt4pairIKiSt3mapIiiSt4lessIiESaIS1_IS2_iEEEEEE10deallocateEPSA_y,"x"
	.linkonce discard
	.align 2
	.globl	_ZNSt15__new_allocatorISt13_Rb_tree_nodeISt4pairIKiSt3mapIiiSt4lessIiESaIS1_IS2_iEEEEEE10deallocateEPSA_y
	.def	_ZNSt15__new_allocatorISt13_Rb_tree_nodeISt4pairIKiSt3mapIiiSt4lessIiESaIS1_IS2_iEEEEEE10deallocateEPSA_y;	.scl	2;	.type	32;	.endef
	.seh_proc	_ZNSt15__new_allocatorISt13_Rb_tree_nodeISt4pairIKiSt3mapIiiSt4lessIiESaIS1_IS2_iEEEEEE10deallocateEPSA_y
_ZNSt15__new_allocatorISt13_Rb_tree_nodeISt4pairIKiSt3mapIiiSt4lessIiESaIS1_IS2_iEEEEEE10deallocateEPSA_y:
.LFB11535:
	pushq	%rbp
	.seh_pushreg	%rbp
	movq	%rsp, %rbp
	.seh_setframe	%rbp, 0
	subq	$32, %rsp
	.seh_stackalloc	32
	.seh_endprologue
	movq	%rcx, 16(%rbp)
	movq	%rdx, 24(%rbp)
	movq	%r8, 32(%rbp)
	movq	32(%rbp), %rax
	imulq	$88, %rax, %rax
	movq	24(%rbp), %rcx
	movq	%rax, %rdx
	call	_ZdlPvy
	nop
	addq	$32, %rsp
	popq	%rbp
	ret
	.seh_endproc
	.section	.text$_ZNSt16allocator_traitsISaIiEE8max_sizeERKS0_,"x"
	.linkonce discard
	.globl	_ZNSt16allocator_traitsISaIiEE8max_sizeERKS0_
	.def	_ZNSt16allocator_traitsISaIiEE8max_sizeERKS0_;	.scl	2;	.type	32;	.endef
	.seh_proc	_ZNSt16allocator_traitsISaIiEE8max_sizeERKS0_
_ZNSt16allocator_traitsISaIiEE8max_sizeERKS0_:
.LFB11536:
	pushq	%rbp
	.seh_pushreg	%rbp
	movq	%rsp, %rbp
	.seh_setframe	%rbp, 0
	subq	$32, %rsp
	.seh_stackalloc	32
	.seh_endprologue
	movq	%rcx, 16(%rbp)
	movq	16(%rbp), %rax
	movq	%rax, %rcx
	call	_ZNKSt15__new_allocatorIiE8max_sizeEv
	addq	$32, %rsp
	popq	%rbp
	ret
	.seh_endproc
	.section	.text$_ZNKSt15__new_allocatorIiE11_M_max_sizeEv,"x"
	.linkonce discard
	.align 2
	.globl	_ZNKSt15__new_allocatorIiE11_M_max_sizeEv
	.def	_ZNKSt15__new_allocatorIiE11_M_max_sizeEv;	.scl	2;	.type	32;	.endef
	.seh_proc	_ZNKSt15__new_allocatorIiE11_M_max_sizeEv
_ZNKSt15__new_allocatorIiE11_M_max_sizeEv:
.LFB11537:
	pushq	%rbp
	.seh_pushreg	%rbp
	movq	%rsp, %rbp
	.seh_setframe	%rbp, 0
	.seh_endprologue
	movq	%rcx, 16(%rbp)
	movabsq	$2305843009213693951, %rax
	popq	%rbp
	ret
	.seh_endproc
	.text
	.def	_ZSt11__make_heapIP4nodeN9__gnu_cxx5__ops15_Iter_comp_iterIZ4mainEUlS0_S0_E_EEEvT_S7_RT0_;	.scl	3;	.type	32;	.endef
	.seh_proc	_ZSt11__make_heapIP4nodeN9__gnu_cxx5__ops15_Iter_comp_iterIZ4mainEUlS0_S0_E_EEEvT_S7_RT0_
_ZSt11__make_heapIP4nodeN9__gnu_cxx5__ops15_Iter_comp_iterIZ4mainEUlS0_S0_E_EEEvT_S7_RT0_:
.LFB11538:
	pushq	%rbp
	.seh_pushreg	%rbp
	movq	%rsp, %rbp
	.seh_setframe	%rbp, 0
	subq	$64, %rsp
	.seh_stackalloc	64
	.seh_endprologue
	movq	%rcx, 16(%rbp)
	movq	%rdx, 24(%rbp)
	movq	%r8, 32(%rbp)
	movq	24(%rbp), %rax
	subq	16(%rbp), %rax
	cmpq	$8, %rax
	jle	.L545
	movq	24(%rbp), %rax
	subq	16(%rbp), %rax
	sarq	$3, %rax
	movq	%rax, -16(%rbp)
	movq	-16(%rbp), %rax
	subq	$2, %rax
	movq	%rax, %rdx
	shrq	$63, %rdx
	addq	%rdx, %rax
	sarq	%rax
	movq	%rax, -8(%rbp)
.L544:
	movq	-8(%rbp), %rax
	leaq	0(,%rax,8), %rdx
	movq	16(%rbp), %rax
	addq	%rdx, %rax
	movq	%rax, %rcx
	call	_ZSt4moveIR4nodeEONSt16remove_referenceIT_E4typeEOS3_
	movq	(%rax), %rax
	movq	%rax, -24(%rbp)
	leaq	-24(%rbp), %rax
	movq	%rax, %rcx
	call	_ZSt4moveIR4nodeEONSt16remove_referenceIT_E4typeEOS3_
	movq	(%rax), %r8
	movq	-16(%rbp), %rcx
	movq	-8(%rbp), %rdx
	movq	16(%rbp), %rax
	movq	%r8, %r9
	movq	%rcx, %r8
	movq	%rax, %rcx
	call	_ZSt13__adjust_heapIP4nodexS0_N9__gnu_cxx5__ops15_Iter_comp_iterIZ4mainEUlS0_S0_E_EEEvT_T0_S8_T1_T2_
	cmpq	$0, -8(%rbp)
	je	.L546
	subq	$1, -8(%rbp)
	jmp	.L544
.L545:
	nop
	jmp	.L540
.L546:
	nop
.L540:
	addq	$64, %rsp
	popq	%rbp
	ret
	.seh_endproc
	.def	_ZSt10__pop_heapIP4nodeN9__gnu_cxx5__ops15_Iter_comp_iterIZ4mainEUlS0_S0_E_EEEvT_S7_S7_RT0_;	.scl	3;	.type	32;	.endef
	.seh_proc	_ZSt10__pop_heapIP4nodeN9__gnu_cxx5__ops15_Iter_comp_iterIZ4mainEUlS0_S0_E_EEEvT_S7_S7_RT0_
_ZSt10__pop_heapIP4nodeN9__gnu_cxx5__ops15_Iter_comp_iterIZ4mainEUlS0_S0_E_EEEvT_S7_S7_RT0_:
.LFB11539:
	pushq	%rbp
	.seh_pushreg	%rbp
	movq	%rsp, %rbp
	.seh_setframe	%rbp, 0
	subq	$48, %rsp
	.seh_stackalloc	48
	.seh_endprologue
	movq	%rcx, 16(%rbp)
	movq	%rdx, 24(%rbp)
	movq	%r8, 32(%rbp)
	movq	%r9, 40(%rbp)
	movq	32(%rbp), %rax
	movq	%rax, %rcx
	call	_ZSt4moveIR4nodeEONSt16remove_referenceIT_E4typeEOS3_
	movq	(%rax), %rax
	movq	%rax, -8(%rbp)
	movq	16(%rbp), %rax
	movq	%rax, %rcx
	call	_ZSt4moveIR4nodeEONSt16remove_referenceIT_E4typeEOS3_
	movq	32(%rbp), %rdx
	movq	(%rax), %rax
	movq	%rax, (%rdx)
	leaq	-8(%rbp), %rax
	movq	%rax, %rcx
	call	_ZSt4moveIR4nodeEONSt16remove_referenceIT_E4typeEOS3_
	movq	24(%rbp), %rdx
	subq	16(%rbp), %rdx
	sarq	$3, %rdx
	movq	%rdx, %rcx
	movq	(%rax), %rdx
	movq	16(%rbp), %rax
	movq	%rdx, %r9
	movq	%rcx, %r8
	movl	$0, %edx
	movq	%rax, %rcx
	call	_ZSt13__adjust_heapIP4nodexS0_N9__gnu_cxx5__ops15_Iter_comp_iterIZ4mainEUlS0_S0_E_EEEvT_T0_S8_T1_T2_
	nop
	addq	$48, %rsp
	popq	%rbp
	ret
	.seh_endproc
	.section	.text$_ZSt9iter_swapIP4nodeS1_EvT_T0_,"x"
	.linkonce discard
	.globl	_ZSt9iter_swapIP4nodeS1_EvT_T0_
	.def	_ZSt9iter_swapIP4nodeS1_EvT_T0_;	.scl	2;	.type	32;	.endef
	.seh_proc	_ZSt9iter_swapIP4nodeS1_EvT_T0_
_ZSt9iter_swapIP4nodeS1_EvT_T0_:
.LFB11540:
	pushq	%rbp
	.seh_pushreg	%rbp
	movq	%rsp, %rbp
	.seh_setframe	%rbp, 0
	subq	$32, %rsp
	.seh_stackalloc	32
	.seh_endprologue
	movq	%rcx, 16(%rbp)
	movq	%rdx, 24(%rbp)
	movq	24(%rbp), %rdx
	movq	16(%rbp), %rax
	movq	%rax, %rcx
	call	_ZSt4swapI4nodeENSt9enable_ifIXsrSt6__and_IJSt6__not_ISt15__is_tuple_likeIT_EESt21is_move_constructibleIS5_ESt18is_move_assignableIS5_EEE5valueEvE4typeERS5_SF_
	nop
	addq	$32, %rsp
	popq	%rbp
	ret
	.seh_endproc
	.section	.text$_ZSt12__miter_baseIP4nodeET_S2_,"x"
	.linkonce discard
	.globl	_ZSt12__miter_baseIP4nodeET_S2_
	.def	_ZSt12__miter_baseIP4nodeET_S2_;	.scl	2;	.type	32;	.endef
	.seh_proc	_ZSt12__miter_baseIP4nodeET_S2_
_ZSt12__miter_baseIP4nodeET_S2_:
.LFB11542:
	pushq	%rbp
	.seh_pushreg	%rbp
	movq	%rsp, %rbp
	.seh_setframe	%rbp, 0
	.seh_endprologue
	movq	%rcx, 16(%rbp)
	movq	16(%rbp), %rax
	popq	%rbp
	ret
	.seh_endproc
	.section	.text$_ZSt22__copy_move_backward_aILb1EP4nodeS1_ET1_T0_S3_S2_,"x"
	.linkonce discard
	.globl	_ZSt22__copy_move_backward_aILb1EP4nodeS1_ET1_T0_S3_S2_
	.def	_ZSt22__copy_move_backward_aILb1EP4nodeS1_ET1_T0_S3_S2_;	.scl	2;	.type	32;	.endef
	.seh_proc	_ZSt22__copy_move_backward_aILb1EP4nodeS1_ET1_T0_S3_S2_
_ZSt22__copy_move_backward_aILb1EP4nodeS1_ET1_T0_S3_S2_:
.LFB11543:
	pushq	%rbp
	.seh_pushreg	%rbp
	pushq	%rsi
	.seh_pushreg	%rsi
	pushq	%rbx
	.seh_pushreg	%rbx
	subq	$32, %rsp
	.seh_stackalloc	32
	leaq	32(%rsp), %rbp
	.seh_setframe	%rbp, 32
	.seh_endprologue
	movq	%rcx, 32(%rbp)
	movq	%rdx, 40(%rbp)
	movq	%r8, 48(%rbp)
	movq	48(%rbp), %rax
	movq	%rax, %rcx
	call	_ZSt12__niter_baseIP4nodeET_S2_
	movq	%rax, %rsi
	movq	40(%rbp), %rax
	movq	%rax, %rcx
	call	_ZSt12__niter_baseIP4nodeET_S2_
	movq	%rax, %rbx
	movq	32(%rbp), %rax
	movq	%rax, %rcx
	call	_ZSt12__niter_baseIP4nodeET_S2_
	movq	%rsi, %r8
	movq	%rbx, %rdx
	movq	%rax, %rcx
	call	_ZSt23__copy_move_backward_a1ILb1EP4nodeS1_ET1_T0_S3_S2_
	movq	%rax, %rdx
	leaq	48(%rbp), %rax
	movq	%rax, %rcx
	call	_ZSt12__niter_wrapIP4nodeET_RKS2_S2_
	addq	$32, %rsp
	popq	%rbx
	popq	%rsi
	popq	%rbp
	ret
	.seh_endproc
	.text
	.def	_ZSt4moveIRN9__gnu_cxx5__ops15_Iter_comp_iterIZ4mainEUl4nodeS3_E_EEEONSt16remove_referenceIT_E4typeEOS8_;	.scl	3;	.type	32;	.endef
	.seh_proc	_ZSt4moveIRN9__gnu_cxx5__ops15_Iter_comp_iterIZ4mainEUl4nodeS3_E_EEEONSt16remove_referenceIT_E4typeEOS8_
_ZSt4moveIRN9__gnu_cxx5__ops15_Iter_comp_iterIZ4mainEUl4nodeS3_E_EEEONSt16remove_referenceIT_E4typeEOS8_:
.LFB11545:
	pushq	%rbp
	.seh_pushreg	%rbp
	movq	%rsp, %rbp
	.seh_setframe	%rbp, 0
	.seh_endprologue
	movq	%rcx, 16(%rbp)
	movq	16(%rbp), %rax
	popq	%rbp
	ret
	.seh_endproc
	.align 2
	.def	_ZN9__gnu_cxx5__ops14_Val_comp_iterIZ4mainEUl4nodeS2_E_EC2EONS0_15_Iter_comp_iterIS3_EE;	.scl	3;	.type	32;	.endef
	.seh_proc	_ZN9__gnu_cxx5__ops14_Val_comp_iterIZ4mainEUl4nodeS2_E_EC2EONS0_15_Iter_comp_iterIS3_EE
_ZN9__gnu_cxx5__ops14_Val_comp_iterIZ4mainEUl4nodeS2_E_EC2EONS0_15_Iter_comp_iterIS3_EE:
.LFB11547:
	pushq	%rbp
	.seh_pushreg	%rbp
	movq	%rsp, %rbp
	.seh_setframe	%rbp, 0
	subq	$32, %rsp
	.seh_stackalloc	32
	.seh_endprologue
	movq	%rcx, 16(%rbp)
	movq	%rdx, 24(%rbp)
	movq	24(%rbp), %rax
	movq	%rax, %rcx
	call	_ZSt4moveIRZ4mainEUl4nodeS0_E_EONSt16remove_referenceIT_E4typeEOS4_
	nop
	addq	$32, %rsp
	popq	%rbp
	ret
	.seh_endproc
	.def	_ZN9__gnu_cxx5__ops14_Val_comp_iterIZ4mainEUl4nodeS2_E_EC1EONS0_15_Iter_comp_iterIS3_EE;	.scl	3;	.type	32;	.endef
	.set	_ZN9__gnu_cxx5__ops14_Val_comp_iterIZ4mainEUl4nodeS2_E_EC1EONS0_15_Iter_comp_iterIS3_EE,_ZN9__gnu_cxx5__ops14_Val_comp_iterIZ4mainEUl4nodeS2_E_EC2EONS0_15_Iter_comp_iterIS3_EE
	.align 2
	.def	_ZN9__gnu_cxx5__ops14_Val_comp_iterIZ4mainEUl4nodeS2_E_EclIS2_PS2_EEbRT_T0_;	.scl	3;	.type	32;	.endef
	.seh_proc	_ZN9__gnu_cxx5__ops14_Val_comp_iterIZ4mainEUl4nodeS2_E_EclIS2_PS2_EEbRT_T0_
_ZN9__gnu_cxx5__ops14_Val_comp_iterIZ4mainEUl4nodeS2_E_EclIS2_PS2_EEbRT_T0_:
.LFB11549:
	pushq	%rbp
	.seh_pushreg	%rbp
	movq	%rsp, %rbp
	.seh_setframe	%rbp, 0
	subq	$32, %rsp
	.seh_stackalloc	32
	.seh_endprologue
	movq	%rcx, 16(%rbp)
	movq	%rdx, 24(%rbp)
	movq	%r8, 32(%rbp)
	movq	16(%rbp), %rax
	movq	32(%rbp), %rdx
	movq	(%rdx), %rcx
	movq	24(%rbp), %rdx
	movq	(%rdx), %rdx
	movq	%rcx, %r8
	movq	%rax, %rcx
	call	_ZZ4mainENKUl4nodeS_E_clES_S_
	addq	$32, %rsp
	popq	%rbp
	ret
	.seh_endproc
	.section	.text$_ZNSt16allocator_traitsISaISt13_Rb_tree_nodeISt4pairIKiSt3mapIiiSt4lessIiESaIS1_IS2_iEEEEEEE8allocateERSB_y,"x"
	.linkonce discard
	.globl	_ZNSt16allocator_traitsISaISt13_Rb_tree_nodeISt4pairIKiSt3mapIiiSt4lessIiESaIS1_IS2_iEEEEEEE8allocateERSB_y
	.def	_ZNSt16allocator_traitsISaISt13_Rb_tree_nodeISt4pairIKiSt3mapIiiSt4lessIiESaIS1_IS2_iEEEEEEE8allocateERSB_y;	.scl	2;	.type	32;	.endef
	.seh_proc	_ZNSt16allocator_traitsISaISt13_Rb_tree_nodeISt4pairIKiSt3mapIiiSt4lessIiESaIS1_IS2_iEEEEEEE8allocateERSB_y
_ZNSt16allocator_traitsISaISt13_Rb_tree_nodeISt4pairIKiSt3mapIiiSt4lessIiESaIS1_IS2_iEEEEEEE8allocateERSB_y:
.LFB11550:
	pushq	%rbp
	.seh_pushreg	%rbp
	movq	%rsp, %rbp
	.seh_setframe	%rbp, 0
	subq	$32, %rsp
	.seh_stackalloc	32
	.seh_endprologue
	movq	%rcx, 16(%rbp)
	movq	%rdx, 24(%rbp)
	movq	24(%rbp), %rdx
	movq	16(%rbp), %rax
	movl	$0, %r8d
	movq	%rax, %rcx
	call	_ZNSt15__new_allocatorISt13_Rb_tree_nodeISt4pairIKiSt3mapIiiSt4lessIiESaIS1_IS2_iEEEEEE8allocateEyPKv
	addq	$32, %rsp
	popq	%rbp
	ret
	.seh_endproc
	.section	.text$_ZNSt16allocator_traitsISaISt13_Rb_tree_nodeISt4pairIKiSt3mapIiiSt4lessIiESaIS1_IS2_iEEEEEEE9constructIS9_JRKSt21piecewise_construct_tSt5tupleIJRS2_EESH_IJEEEEEvRSB_PT_DpOT0_,"x"
	.linkonce discard
	.globl	_ZNSt16allocator_traitsISaISt13_Rb_tree_nodeISt4pairIKiSt3mapIiiSt4lessIiESaIS1_IS2_iEEEEEEE9constructIS9_JRKSt21piecewise_construct_tSt5tupleIJRS2_EESH_IJEEEEEvRSB_PT_DpOT0_
	.def	_ZNSt16allocator_traitsISaISt13_Rb_tree_nodeISt4pairIKiSt3mapIiiSt4lessIiESaIS1_IS2_iEEEEEEE9constructIS9_JRKSt21piecewise_construct_tSt5tupleIJRS2_EESH_IJEEEEEvRSB_PT_DpOT0_;	.scl	2;	.type	32;	.endef
	.seh_proc	_ZNSt16allocator_traitsISaISt13_Rb_tree_nodeISt4pairIKiSt3mapIiiSt4lessIiESaIS1_IS2_iEEEEEEE9constructIS9_JRKSt21piecewise_construct_tSt5tupleIJRS2_EESH_IJEEEEEvRSB_PT_DpOT0_
_ZNSt16allocator_traitsISaISt13_Rb_tree_nodeISt4pairIKiSt3mapIiiSt4lessIiESaIS1_IS2_iEEEEEEE9constructIS9_JRKSt21piecewise_construct_tSt5tupleIJRS2_EESH_IJEEEEEvRSB_PT_DpOT0_:
.LFB11551:
	pushq	%rbp
	.seh_pushreg	%rbp
	pushq	%rsi
	.seh_pushreg	%rsi
	pushq	%rbx
	.seh_pushreg	%rbx
	subq	$48, %rsp
	.seh_stackalloc	48
	leaq	48(%rsp), %rbp
	.seh_setframe	%rbp, 48
	.seh_endprologue
	movq	%rcx, 32(%rbp)
	movq	%rdx, 40(%rbp)
	movq	%r8, 48(%rbp)
	movq	%r9, 56(%rbp)
	movq	64(%rbp), %rax
	movq	%rax, %rcx
	call	_ZSt7forwardISt5tupleIJEEEOT_RNSt16remove_referenceIS2_E4typeE
	movq	%rax, %rbx
	movq	56(%rbp), %rax
	movq	%rax, %rcx
	call	_ZSt7forwardISt5tupleIJRKiEEEOT_RNSt16remove_referenceIS4_E4typeE
	movq	%rax, %rsi
	movq	48(%rbp), %rax
	movq	%rax, %rcx
	call	_ZSt7forwardIRKSt21piecewise_construct_tEOT_RNSt16remove_referenceIS3_E4typeE
	movq	%rax, %rcx
	movq	40(%rbp), %rdx
	movq	32(%rbp), %rax
	movq	%rbx, 32(%rsp)
	movq	%rsi, %r9
	movq	%rcx, %r8
	movq	%rax, %rcx
	call	_ZNSt15__new_allocatorISt13_Rb_tree_nodeISt4pairIKiSt3mapIiiSt4lessIiESaIS1_IS2_iEEEEEE9constructIS9_JRKSt21piecewise_construct_tSt5tupleIJRS2_EESG_IJEEEEEvPT_DpOT0_
	nop
	addq	$48, %rsp
	popq	%rbx
	popq	%rsi
	popq	%rbp
	ret
	.seh_endproc
	.section	.text$_ZSt7forwardIRPSt13_Rb_tree_nodeISt4pairIKiSt3mapIiiSt4lessIiESaIS1_IS2_iEEEEEEOT_RNSt16remove_referenceISD_E4typeE,"x"
	.linkonce discard
	.globl	_ZSt7forwardIRPSt13_Rb_tree_nodeISt4pairIKiSt3mapIiiSt4lessIiESaIS1_IS2_iEEEEEEOT_RNSt16remove_referenceISD_E4typeE
	.def	_ZSt7forwardIRPSt13_Rb_tree_nodeISt4pairIKiSt3mapIiiSt4lessIiESaIS1_IS2_iEEEEEEOT_RNSt16remove_referenceISD_E4typeE;	.scl	2;	.type	32;	.endef
	.seh_proc	_ZSt7forwardIRPSt13_Rb_tree_nodeISt4pairIKiSt3mapIiiSt4lessIiESaIS1_IS2_iEEEEEEOT_RNSt16remove_referenceISD_E4typeE
_ZSt7forwardIRPSt13_Rb_tree_nodeISt4pairIKiSt3mapIiiSt4lessIiESaIS1_IS2_iEEEEEEOT_RNSt16remove_referenceISD_E4typeE:
.LFB11552:
	pushq	%rbp
	.seh_pushreg	%rbp
	movq	%rsp, %rbp
	.seh_setframe	%rbp, 0
	.seh_endprologue
	movq	%rcx, 16(%rbp)
	movq	16(%rbp), %rax
	popq	%rbp
	ret
	.seh_endproc
	.section	.text$_ZNK9__gnu_cxx16__aligned_membufISt4pairIKiSt3mapIiiSt4lessIiESaIS1_IS2_iEEEEE6_M_ptrEv,"x"
	.linkonce discard
	.align 2
	.globl	_ZNK9__gnu_cxx16__aligned_membufISt4pairIKiSt3mapIiiSt4lessIiESaIS1_IS2_iEEEEE6_M_ptrEv
	.def	_ZNK9__gnu_cxx16__aligned_membufISt4pairIKiSt3mapIiiSt4lessIiESaIS1_IS2_iEEEEE6_M_ptrEv;	.scl	2;	.type	32;	.endef
	.seh_proc	_ZNK9__gnu_cxx16__aligned_membufISt4pairIKiSt3mapIiiSt4lessIiESaIS1_IS2_iEEEEE6_M_ptrEv
_ZNK9__gnu_cxx16__aligned_membufISt4pairIKiSt3mapIiiSt4lessIiESaIS1_IS2_iEEEEE6_M_ptrEv:
.LFB11553:
	pushq	%rbp
	.seh_pushreg	%rbp
	movq	%rsp, %rbp
	.seh_setframe	%rbp, 0
	subq	$32, %rsp
	.seh_stackalloc	32
	.seh_endprologue
	movq	%rcx, 16(%rbp)
	movq	16(%rbp), %rax
	movq	%rax, %rcx
	call	_ZNK9__gnu_cxx16__aligned_membufISt4pairIKiSt3mapIiiSt4lessIiESaIS1_IS2_iEEEEE7_M_addrEv
	addq	$32, %rsp
	popq	%rbp
	ret
	.seh_endproc
	.section	.text$_ZNSt8_Rb_treeIiSt4pairIKiiESt10_Select1stIS2_ESt4lessIiESaIS2_EE21_M_get_Node_allocatorEv,"x"
	.linkonce discard
	.align 2
	.globl	_ZNSt8_Rb_treeIiSt4pairIKiiESt10_Select1stIS2_ESt4lessIiESaIS2_EE21_M_get_Node_allocatorEv
	.def	_ZNSt8_Rb_treeIiSt4pairIKiiESt10_Select1stIS2_ESt4lessIiESaIS2_EE21_M_get_Node_allocatorEv;	.scl	2;	.type	32;	.endef
	.seh_proc	_ZNSt8_Rb_treeIiSt4pairIKiiESt10_Select1stIS2_ESt4lessIiESaIS2_EE21_M_get_Node_allocatorEv
_ZNSt8_Rb_treeIiSt4pairIKiiESt10_Select1stIS2_ESt4lessIiESaIS2_EE21_M_get_Node_allocatorEv:
.LFB11554:
	pushq	%rbp
	.seh_pushreg	%rbp
	movq	%rsp, %rbp
	.seh_setframe	%rbp, 0
	.seh_endprologue
	movq	%rcx, 16(%rbp)
	movq	16(%rbp), %rax
	popq	%rbp
	ret
	.seh_endproc
	.section	.text$_ZNSt16allocator_traitsISaISt13_Rb_tree_nodeISt4pairIKiiEEEE8allocateERS5_y,"x"
	.linkonce discard
	.globl	_ZNSt16allocator_traitsISaISt13_Rb_tree_nodeISt4pairIKiiEEEE8allocateERS5_y
	.def	_ZNSt16allocator_traitsISaISt13_Rb_tree_nodeISt4pairIKiiEEEE8allocateERS5_y;	.scl	2;	.type	32;	.endef
	.seh_proc	_ZNSt16allocator_traitsISaISt13_Rb_tree_nodeISt4pairIKiiEEEE8allocateERS5_y
_ZNSt16allocator_traitsISaISt13_Rb_tree_nodeISt4pairIKiiEEEE8allocateERS5_y:
.LFB11555:
	pushq	%rbp
	.seh_pushreg	%rbp
	movq	%rsp, %rbp
	.seh_setframe	%rbp, 0
	subq	$32, %rsp
	.seh_stackalloc	32
	.seh_endprologue
	movq	%rcx, 16(%rbp)
	movq	%rdx, 24(%rbp)
	movq	24(%rbp), %rdx
	movq	16(%rbp), %rax
	movl	$0, %r8d
	movq	%rax, %rcx
	call	_ZNSt15__new_allocatorISt13_Rb_tree_nodeISt4pairIKiiEEE8allocateEyPKv
	addq	$32, %rsp
	popq	%rbp
	ret
	.seh_endproc
	.section	.text$_ZNSt16allocator_traitsISaISt13_Rb_tree_nodeISt4pairIKiiEEEE9constructIS3_JRKSt21piecewise_construct_tSt5tupleIJRS2_EESB_IJEEEEEvRS5_PT_DpOT0_,"x"
	.linkonce discard
	.globl	_ZNSt16allocator_traitsISaISt13_Rb_tree_nodeISt4pairIKiiEEEE9constructIS3_JRKSt21piecewise_construct_tSt5tupleIJRS2_EESB_IJEEEEEvRS5_PT_DpOT0_
	.def	_ZNSt16allocator_traitsISaISt13_Rb_tree_nodeISt4pairIKiiEEEE9constructIS3_JRKSt21piecewise_construct_tSt5tupleIJRS2_EESB_IJEEEEEvRS5_PT_DpOT0_;	.scl	2;	.type	32;	.endef
	.seh_proc	_ZNSt16allocator_traitsISaISt13_Rb_tree_nodeISt4pairIKiiEEEE9constructIS3_JRKSt21piecewise_construct_tSt5tupleIJRS2_EESB_IJEEEEEvRS5_PT_DpOT0_
_ZNSt16allocator_traitsISaISt13_Rb_tree_nodeISt4pairIKiiEEEE9constructIS3_JRKSt21piecewise_construct_tSt5tupleIJRS2_EESB_IJEEEEEvRS5_PT_DpOT0_:
.LFB11556:
	pushq	%rbp
	.seh_pushreg	%rbp
	pushq	%rsi
	.seh_pushreg	%rsi
	pushq	%rbx
	.seh_pushreg	%rbx
	subq	$48, %rsp
	.seh_stackalloc	48
	leaq	48(%rsp), %rbp
	.seh_setframe	%rbp, 48
	.seh_endprologue
	movq	%rcx, 32(%rbp)
	movq	%rdx, 40(%rbp)
	movq	%r8, 48(%rbp)
	movq	%r9, 56(%rbp)
	movq	64(%rbp), %rax
	movq	%rax, %rcx
	call	_ZSt7forwardISt5tupleIJEEEOT_RNSt16remove_referenceIS2_E4typeE
	movq	%rax, %rbx
	movq	56(%rbp), %rax
	movq	%rax, %rcx
